Archive member included because of file (symbol)

contiki-z1.a(contiki-z1-plat)
                              obj_z1/contiki-z1-main.o (init_platform)
contiki-z1.a(msp430.o)        obj_z1/contiki-z1-main.o (splhigh_)
contiki-z1.a(leds.o)          sdn-wise.co (leds_init)
contiki-z1.a(watchdog.o)      obj_z1/contiki-z1-main.o (watchdog_start)
contiki-z1.a(xmem.o)          obj_z1/contiki-z1-main.o (xmem_init)
contiki-z1.a(spi.o)           contiki-z1.a(xmem.o) (spi_init)
contiki-z1.a(cc2420.o)        obj_z1/contiki-z1-main.o (cc2420_set_pan_addr)
contiki-z1.a(cc2420-arch.o)   contiki-z1.a(cc2420.o) (cc2420_arch_init)
contiki-z1.a(node-id.o)       obj_z1/contiki-z1-main.o (node_id_restore)
contiki-z1.a(sensors.o)       contiki-z1.a(contiki-z1-plat) (sensors_process)
contiki-z1.a(uart0.o)         obj_z1/contiki-z1-main.o (uart0_active)
contiki-z1.a(uart0-putchar.o)
                              obj_z1/packet-buffer.o (putchar)
contiki-z1.a(z1-sensors.o)    contiki-z1.a(sensors.o) (sensors_flags)
contiki-z1.a(adxl345.o)       obj_z1/contiki-z1-main.o (adxl345)
contiki-z1.a(tmp102.o)        contiki-z1.a(z1-sensors.o) (tmp102)
contiki-z1.a(clock.o)         obj_z1/contiki-z1-main.o (clock_init)
contiki-z1.a(leds-arch.o)     contiki-z1.a(leds.o) (leds_arch_init)
contiki-z1.a(rtimer-arch.o)   obj_z1/contiki-z1-main.o (rtimer_arch_now)
contiki-z1.a(autostart.o)     obj_z1/contiki-z1-main.o (autostart_start)
contiki-z1.a(energest.o)      obj_z1/contiki-z1-main.o (energest_init)
contiki-z1.a(etimer.o)        contiki-z1.a(clock.o) (etimer_request_poll)
contiki-z1.a(ctimer.o)        obj_z1/contiki-z1-main.o (ctimer_init)
contiki-z1.a(process.o)       contiki-z1.a(etimer.o) (process_current)
contiki-z1.a(rtimer.o)        obj_z1/contiki-z1-main.o (rtimer_init)
contiki-z1.a(timer.o)         contiki-z1.a(adxl345.o) (timer_set)
contiki-z1.a(serial-line.o)   obj_z1/contiki-z1-main.o (serial_line_input_byte)
contiki-z1.a(list.o)          obj_z1/flowtable.o (list_init)
contiki-z1.a(memb.o)          obj_z1/flowtable.o (memb_init)
contiki-z1.a(random.o)        obj_z1/contiki-z1-main.o (random_init)
contiki-z1.a(ringbuf.o)       contiki-z1.a(serial-line.o) (ringbuf_init)
contiki-z1.a(broadcast.o)     sdn-wise.co (broadcast_open)
contiki-z1.a(rime.o)          obj_z1/contiki-z1-main.o (rime_driver)
contiki-z1.a(unicast.o)       sdn-wise.co (unicast_open)
contiki-z1.a(queuebuf.o)      contiki-z1.a(rime.o) (queuebuf_init)
contiki-z1.a(packetbuf.o)     contiki-z1.a(cc2420.o) (packetbuf_set_datalen)
contiki-z1.a(linkaddr.o)      obj_z1/contiki-z1-main.o (linkaddr_copy)
contiki-z1.a(csma.o)          obj_z1/contiki-z1-main.o (csma_driver)
contiki-z1.a(contikimac.o)    obj_z1/contiki-z1-main.o (contikimac_driver)
contiki-z1.a(contikimac-fram)
                              contiki-z1.a(contikimac.o) (contikimac_framer)
contiki-z1.a(nullsec.o)       obj_z1/contiki-z1-main.o (nullsec_driver)
contiki-z1.a(i2cmaster.o)     contiki-z1.a(adxl345.o) (i2c_receiveinit)
contiki-z1.a(button-sensor.o)
                              contiki-z1.a(z1-sensors.o) (button_sensor)
contiki-z1.a(compower.o)      contiki-z1.a(contikimac.o) (compower_accumulate)
contiki-z1.a(broadcast-annou)
                              contiki-z1.a(rime.o) (broadcast_announcement_init)
contiki-z1.a(abc.o)           contiki-z1.a(broadcast.o) (abc_open)
contiki-z1.a(announcement.o)  contiki-z1.a(rime.o) (announcement_init)
contiki-z1.a(channel.o)       contiki-z1.a(abc.o) (channel_open)
contiki-z1.a(chameleon.o)     contiki-z1.a(rime.o) (chameleon_init)
contiki-z1.a(mac-sequence.o)  contiki-z1.a(contikimac.o) (mac_sequence_is_duplicate)
contiki-z1.a(framer-802154.o)
                              contiki-z1.a(contikimac-fram) (framer_802154)
contiki-z1.a(frame802154.o)   contiki-z1.a(framer-802154.o) (frame802154_get_pan_id)
contiki-z1.a(mac.o)           contiki-z1.a(csma.o) (mac_call_sent_callback)
contiki-z1.a(chameleon-bitop)
                              contiki-z1.a(chameleon.o) (chameleon_bitopt)
/usr/lib/gcc/msp430/4.6.3/mcpu-430x/mmpy-16/libgcc.a(_mulsi3.o)
                              contiki-z1.a(csma.o) (__mulsi3)
/usr/lib/gcc/msp430/4.6.3/mcpu-430x/mmpy-16/libgcc.a(_udivmod16.o)
                              obj_z1/flowtable.o (__udivhi3)
/usr/lib/gcc/msp430/4.6.3/mcpu-430x/mmpy-16/libgcc.a(_divmod16.o)
                              contiki-z1.a(tmp102.o) (__divhi3)
/usr/lib/gcc/msp430/4.6.3/mcpu-430x/mmpy-16/libgcc.a(_udivmod32.o)
                              obj_z1/contiki-z1-main.o (__udivsi3)
/usr/lib/gcc/msp430/4.6.3/../../../../msp430/lib/mcpu-430x/mmpy-16/libc.a(strncmp.o)
                              contiki-z1.a(sensors.o) (strncmp)
/usr/lib/gcc/msp430/4.6.3/../../../../msp430/lib/mcpu-430x/mmpy-16/libc.a(memcmp.o)
                              contiki-z1.a(linkaddr.o) (memcmp)
/usr/lib/gcc/msp430/4.6.3/../../../../msp430/lib/mcpu-430x/mmpy-16/libc.a(memcpy.o)
                              obj_z1/flowtable.o (memcpy)
/usr/lib/gcc/msp430/4.6.3/../../../../msp430/lib/mcpu-430x/mmpy-16/libc.a(memset.o)
                              obj_z1/flowtable.o (memset)
/usr/lib/gcc/msp430/4.6.3/../../../../msp430/lib/mcpu-430x/mmpy-16/libc.a(printf.o)
                              obj_z1/contiki-z1-main.o (printf)
/usr/lib/gcc/msp430/4.6.3/../../../../msp430/lib/mcpu-430x/mmpy-16/libc.a(vuprintf.o)
                              /usr/lib/gcc/msp430/4.6.3/../../../../msp430/lib/mcpu-430x/mmpy-16/libc.a(printf.o) (vuprintf)
/usr/lib/gcc/msp430/4.6.3/../../../../msp430/lib/mcpu-430x/mmpy-16/libc.a(puts.o)
                              obj_z1/packet-handler.o (puts)
/usr/lib/gcc/msp430/4.6.3/../../../../msp430/lib/mcpu-430x/mmpy-16/libc.a(rand.o)
                              contiki-z1.a(random.o) (rand)
/usr/lib/gcc/msp430/4.6.3/mcpu-430x/mmpy-16/libgcc.a(_udivmod64.o)
                              /usr/lib/gcc/msp430/4.6.3/../../../../msp430/lib/mcpu-430x/mmpy-16/libc.a(vuprintf.o) (__udivdi3)
/usr/lib/gcc/msp430/4.6.3/mcpu-430x/mmpy-16/libcrt0.a(_reset_vector__.o)
                              /usr/lib/gcc/msp430/4.6.3/mcpu-430x/mmpy-16/crt0ivtbl32.o (_reset_vector__)
/usr/lib/gcc/msp430/4.6.3/mcpu-430x/mmpy-16/libcrt0.a(__watchdog_support.o)
                              /usr/lib/gcc/msp430/4.6.3/mcpu-430x/mmpy-16/libcrt0.a(_reset_vector__.o) (__watchdog_support)
/usr/lib/gcc/msp430/4.6.3/mcpu-430x/mmpy-16/libcrt0.a(__init_stack.o)
                              /usr/lib/gcc/msp430/4.6.3/mcpu-430x/mmpy-16/libcrt0.a(_reset_vector__.o) (__init_stack)
/usr/lib/gcc/msp430/4.6.3/mcpu-430x/mmpy-16/libcrt0.a(__low_level_init.o)
                              /usr/lib/gcc/msp430/4.6.3/mcpu-430x/mmpy-16/libcrt0.a(_reset_vector__.o) (__low_level_init)
/usr/lib/gcc/msp430/4.6.3/mcpu-430x/mmpy-16/libcrt0.a(_copy_data.o)
                              /usr/lib/gcc/msp430/4.6.3/mcpu-430x/mmpy-16/libcrt0.a(_reset_vector__.o) (__do_copy_data)
/usr/lib/gcc/msp430/4.6.3/mcpu-430x/mmpy-16/libcrt0.a(_clear_bss.o)
                              /usr/lib/gcc/msp430/4.6.3/mcpu-430x/mmpy-16/libcrt0.a(_reset_vector__.o) (__do_clear_bss)
/usr/lib/gcc/msp430/4.6.3/mcpu-430x/mmpy-16/libcrt0.a(__stop_progExec__.o)
                              /usr/lib/gcc/msp430/4.6.3/mcpu-430x/mmpy-16/libcrt0.a(_reset_vector__.o) (__stop_progExec__)
/usr/lib/gcc/msp430/4.6.3/mcpu-430x/mmpy-16/libcrt0.a(_endless_loop__.o)
                              /usr/lib/gcc/msp430/4.6.3/mcpu-430x/mmpy-16/libcrt0.a(_reset_vector__.o) (_endless_loop__)
/usr/lib/gcc/msp430/4.6.3/mcpu-430x/mmpy-16/libcrt0.a(_unexpected_.o)
                              /usr/lib/gcc/msp430/4.6.3/mcpu-430x/mmpy-16/crt0ivtbl32.o (_unexpected_)

Allocating common symbols
Common symbol       size              file

compower_idle_activity
                    0x8               contiki-z1.a(compower.o)
energest_total_time
                    0x30              contiki-z1.a(energest.o)
cc2420_last_rssi    0x1               contiki-z1.a(cc2420.o)
accm_int2_cb        0x2               contiki-z1.a(adxl345.o)
conf                0x18              obj_z1/node-conf.o
energest_total_count
                    0x2               contiki-z1.a(energest.o)
cc2420_sfd_start_time
                    0x2               contiki-z1.a(cc2420.o)
cc2420_time_of_departure
                    0x2               contiki-z1.a(cc2420.o)
cc2420_time_of_arrival
                    0x2               contiki-z1.a(cc2420.o)
energest_current_mode
                    0xc               contiki-z1.a(energest.o)
packetbuf_addrs     0x8               contiki-z1.a(packetbuf.o)
process_maxevents   0x1               contiki-z1.a(process.o)
transmit_data1      0x1               contiki-z1.a(i2cmaster.o)
rx_byte_ctr         0x1               contiki-z1.a(i2cmaster.o)
tx_buf_ptr          0x2               contiki-z1.a(i2cmaster.o)
tx_byte_ctr         0x1               contiki-z1.a(i2cmaster.o)
cc2420_last_correlation
                    0x1               contiki-z1.a(cc2420.o)
linkaddr_node_addr  0x2               contiki-z1.a(linkaddr.o)
accm_int1_cb        0x2               contiki-z1.a(adxl345.o)
cc2420_authority_level_of_sender
                    0x2               contiki-z1.a(cc2420.o)
i                   0x2               contiki-z1.a(i2cmaster.o)
packetbuf_attrs     0x34              contiki-z1.a(packetbuf.o)
msp430_dco_required
                    0x2               contiki-z1.a(msp430.o)
receive_data        0x1               contiki-z1.a(i2cmaster.o)
cc2420_sfd_counter  0x1               contiki-z1.a(cc2420.o)
rx_buf              0x2               contiki-z1.a(i2cmaster.o)
status_register     0x14              obj_z1/flowtable.o
node_mac            0x8               contiki-z1.a(node-id.o)
transmit_data2      0x1               contiki-z1.a(i2cmaster.o)
energest_current_time
                    0x18              contiki-z1.a(energest.o)
rx_buf_ptr          0x2               contiki-z1.a(i2cmaster.o)
sensors_flags       0x4               contiki-z1.a(z1-sensors.o)
serial_line_event_message
                    0x1               contiki-z1.a(serial-line.o)
cc2420_sfd_end_time
                    0x2               contiki-z1.a(cc2420.o)
sensors_event       0x1               contiki-z1.a(sensors.o)

Memory Configuration

Name             Origin             Length             Attributes
sfr              0x0000000000000000 0x0000000000000010
peripheral_8bit  0x0000000000000010 0x00000000000000f0
peripheral_16bit 0x0000000000000100 0x0000000000000100
ram_mirror       0x0000000000000200 0x0000000000000800 xw
infomem          0x0000000000001000 0x0000000000000100
infod            0x0000000000001000 0x0000000000000040
infoc            0x0000000000001040 0x0000000000000040
infob            0x0000000000001080 0x0000000000000040
infoa            0x00000000000010c0 0x0000000000000040
ram              0x0000000000001100 0x0000000000002000 xw
rom              0x0000000000003100 0x000000000000cebe xr
vectors          0x000000000000ffc0 0x0000000000000040
far_rom          0x0000000000010000 0x000000000000a000
bsl              0x0000000000000000 0x0000000000000000
ram2             0x0000000000000000 0x0000000000000000 xw
usbram           0x0000000000000000 0x0000000000000000 xw
*default*        0x0000000000000000 0xffffffffffffffff

Linker script and memory map

LOAD /usr/lib/gcc/msp430/4.6.3/mcpu-430x/mmpy-16/crt0ivtbl32.o
                0x0000000000000041                __P1SEL2 = 0x41
                0x0000000000000045                __P5SEL2 = 0x45
LOAD sdn-wise.co
LOAD obj_z1/flowtable.o
LOAD obj_z1/packet-buffer.o
LOAD obj_z1/address.o
LOAD obj_z1/neighbor-table.o
LOAD obj_z1/packet-handler.o
LOAD obj_z1/node-conf.o
LOAD obj_z1/packet-creator.o
LOAD obj_z1/contiki-z1-main.o
LOAD contiki-z1.a
LOAD /usr/lib/gcc/msp430/4.6.3/mcpu-430x/mmpy-16/libgcc.a
LOAD /usr/lib/gcc/msp430/4.6.3/../../../../msp430/lib/mcpu-430x/mmpy-16/libc.a
LOAD /usr/lib/gcc/msp430/4.6.3/mcpu-430x/mmpy-16/libgcc.a
LOAD /usr/lib/gcc/msp430/4.6.3/mcpu-430x/mmpy-16/libcrt0.a
                0x0000000000000040                PROVIDE (__info_segment_size, 0x40)
                0x0000000000001000                PROVIDE (__infod, 0x1000)
                0x0000000000001040                PROVIDE (__infoc, 0x1040)
                0x0000000000001080                PROVIDE (__infob, 0x1080)
                0x00000000000010c0                PROVIDE (__infoa, 0x10c0)
                0x0000000000000000                __IE1 = 0x0
                0x0000000000000002                __IFG1 = 0x2
                0x0000000000000001                __IE2 = 0x1
                0x0000000000000003                __IFG2 = 0x3
                0x0000000000000006                __UC1IE = 0x6
                0x0000000000000007                __UC1IFG = 0x7
                0x00000000000001a0                __ADC12CTL0 = 0x1a0
                0x00000000000001a2                __ADC12CTL1 = 0x1a2
                0x00000000000001a4                __ADC12IFG = 0x1a4
                0x00000000000001a6                __ADC12IE = 0x1a6
                0x00000000000001a8                __ADC12IV = 0x1a8
                0x0000000000000140                __ADC12MEM0 = 0x140
                0x0000000000000142                __ADC12MEM1 = 0x142
                0x0000000000000144                __ADC12MEM2 = 0x144
                0x0000000000000146                __ADC12MEM3 = 0x146
                0x0000000000000148                __ADC12MEM4 = 0x148
                0x000000000000014a                __ADC12MEM5 = 0x14a
                0x000000000000014c                __ADC12MEM6 = 0x14c
                0x000000000000014e                __ADC12MEM7 = 0x14e
                0x0000000000000150                __ADC12MEM8 = 0x150
                0x0000000000000152                __ADC12MEM9 = 0x152
                0x0000000000000154                __ADC12MEM10 = 0x154
                0x0000000000000156                __ADC12MEM11 = 0x156
                0x0000000000000158                __ADC12MEM12 = 0x158
                0x000000000000015a                __ADC12MEM13 = 0x15a
                0x000000000000015c                __ADC12MEM14 = 0x15c
                0x000000000000015e                __ADC12MEM15 = 0x15e
                0x0000000000000080                __ADC12MCTL0 = 0x80
                0x0000000000000081                __ADC12MCTL1 = 0x81
                0x0000000000000082                __ADC12MCTL2 = 0x82
                0x0000000000000083                __ADC12MCTL3 = 0x83
                0x0000000000000084                __ADC12MCTL4 = 0x84
                0x0000000000000085                __ADC12MCTL5 = 0x85
                0x0000000000000086                __ADC12MCTL6 = 0x86
                0x0000000000000087                __ADC12MCTL7 = 0x87
                0x0000000000000088                __ADC12MCTL8 = 0x88
                0x0000000000000089                __ADC12MCTL9 = 0x89
                0x000000000000008a                __ADC12MCTL10 = 0x8a
                0x000000000000008b                __ADC12MCTL11 = 0x8b
                0x000000000000008c                __ADC12MCTL12 = 0x8c
                0x000000000000008d                __ADC12MCTL13 = 0x8d
                0x000000000000008e                __ADC12MCTL14 = 0x8e
                0x000000000000008f                __ADC12MCTL15 = 0x8f
                0x0000000000000056                __DCOCTL = 0x56
                0x0000000000000057                __BCSCTL1 = 0x57
                0x0000000000000058                __BCSCTL2 = 0x58
                0x0000000000000053                __BCSCTL3 = 0x53
                0x0000000000000059                __CACTL1 = 0x59
                0x000000000000005a                __CACTL2 = 0x5a
                0x000000000000005b                __CAPD = 0x5b
                0x00000000000001c0                __DAC12_0CTL = 0x1c0
                0x00000000000001c2                __DAC12_1CTL = 0x1c2
                0x00000000000001c8                __DAC12_0DAT = 0x1c8
                0x00000000000001ca                __DAC12_1DAT = 0x1ca
                0x0000000000000122                __DMACTL0 = 0x122
                0x0000000000000124                __DMACTL1 = 0x124
                0x0000000000000126                __DMAIV = 0x126
                0x00000000000001d0                __DMA0CTL = 0x1d0
                0x00000000000001dc                __DMA1CTL = 0x1dc
                0x00000000000001e8                __DMA2CTL = 0x1e8
                0x00000000000001d2                __DMA0SA = 0x1d2
                0x00000000000001d2                __DMA0SAL = 0x1d2
                0x00000000000001d6                __DMA0DA = 0x1d6
                0x00000000000001d6                __DMA0DAL = 0x1d6
                0x00000000000001da                __DMA0SZ = 0x1da
                0x00000000000001de                __DMA1SA = 0x1de
                0x00000000000001de                __DMA1SAL = 0x1de
                0x00000000000001e2                __DMA1DA = 0x1e2
                0x00000000000001e2                __DMA1DAL = 0x1e2
                0x00000000000001e6                __DMA1SZ = 0x1e6
                0x00000000000001ea                __DMA2SA = 0x1ea
                0x00000000000001ea                __DMA2SAL = 0x1ea
                0x00000000000001ee                __DMA2DA = 0x1ee
                0x00000000000001ee                __DMA2DAL = 0x1ee
                0x00000000000001f2                __DMA2SZ = 0x1f2
                0x0000000000000128                __FCTL1 = 0x128
                0x000000000000012a                __FCTL2 = 0x12a
                0x000000000000012c                __FCTL3 = 0x12c
                0x00000000000001be                __FCTL4 = 0x1be
                0x0000000000000130                __MPY = 0x130
                0x0000000000000132                __MPYS = 0x132
                0x0000000000000134                __MAC = 0x134
                0x0000000000000136                __MACS = 0x136
                0x0000000000000138                __OP2 = 0x138
                0x000000000000013a                __RESLO = 0x13a
                0x000000000000013c                __RESHI = 0x13c
                0x000000000000013e                __SUMEXT = 0x13e
                0x0000000000000020                __P1IN = 0x20
                0x0000000000000021                __P1OUT = 0x21
                0x0000000000000022                __P1DIR = 0x22
                0x0000000000000023                __P1IFG = 0x23
                0x0000000000000024                __P1IES = 0x24
                0x0000000000000025                __P1IE = 0x25
                0x0000000000000026                __P1SEL = 0x26
                0x0000000000000027                __P1REN = 0x27
                0x0000000000000028                __P2IN = 0x28
                0x0000000000000029                __P2OUT = 0x29
                0x000000000000002a                __P2DIR = 0x2a
                0x000000000000002b                __P2IFG = 0x2b
                0x000000000000002c                __P2IES = 0x2c
                0x000000000000002d                __P2IE = 0x2d
                0x000000000000002e                __P2SEL = 0x2e
                0x000000000000002f                __P2REN = 0x2f
                0x0000000000000018                __P3IN = 0x18
                0x0000000000000019                __P3OUT = 0x19
                0x000000000000001a                __P3DIR = 0x1a
                0x000000000000001b                __P3SEL = 0x1b
                0x0000000000000010                __P3REN = 0x10
                0x000000000000001c                __P4IN = 0x1c
                0x000000000000001d                __P4OUT = 0x1d
                0x000000000000001e                __P4DIR = 0x1e
                0x000000000000001f                __P4SEL = 0x1f
                0x0000000000000011                __P4REN = 0x11
                0x0000000000000030                __P5IN = 0x30
                0x0000000000000031                __P5OUT = 0x31
                0x0000000000000032                __P5DIR = 0x32
                0x0000000000000033                __P5SEL = 0x33
                0x0000000000000012                __P5REN = 0x12
                0x0000000000000034                __P6IN = 0x34
                0x0000000000000035                __P6OUT = 0x35
                0x0000000000000036                __P6DIR = 0x36
                0x0000000000000037                __P6SEL = 0x37
                0x0000000000000013                __P6REN = 0x13
                0x0000000000000038                __P7IN = 0x38
                0x000000000000003a                __P7OUT = 0x3a
                0x000000000000003c                __P7DIR = 0x3c
                0x000000000000003e                __P7SEL = 0x3e
                0x0000000000000014                __P7REN = 0x14
                0x0000000000000039                __P8IN = 0x39
                0x000000000000003b                __P8OUT = 0x3b
                0x000000000000003d                __P8DIR = 0x3d
                0x000000000000003f                __P8SEL = 0x3f
                0x0000000000000015                __P8REN = 0x15
                0x0000000000000038                __PAIN = 0x38
                0x000000000000003a                __PAOUT = 0x3a
                0x000000000000003c                __PADIR = 0x3c
                0x000000000000003e                __PASEL = 0x3e
                0x0000000000000014                __PAREN = 0x14
                0x0000000000000055                __SVSCTL = 0x55
                0x000000000000012e                __TAIV = 0x12e
                0x0000000000000160                __TACTL = 0x160
                0x0000000000000162                __TACCTL0 = 0x162
                0x0000000000000164                __TACCTL1 = 0x164
                0x0000000000000166                __TACCTL2 = 0x166
                0x0000000000000170                __TAR = 0x170
                0x0000000000000172                __TACCR0 = 0x172
                0x0000000000000174                __TACCR1 = 0x174
                0x0000000000000176                __TACCR2 = 0x176
                0x000000000000011e                __TBIV = 0x11e
                0x0000000000000180                __TBCTL = 0x180
                0x0000000000000182                __TBCCTL0 = 0x182
                0x0000000000000184                __TBCCTL1 = 0x184
                0x0000000000000186                __TBCCTL2 = 0x186
                0x0000000000000188                __TBCCTL3 = 0x188
                0x000000000000018a                __TBCCTL4 = 0x18a
                0x000000000000018c                __TBCCTL5 = 0x18c
                0x000000000000018e                __TBCCTL6 = 0x18e
                0x0000000000000190                __TBR = 0x190
                0x0000000000000192                __TBCCR0 = 0x192
                0x0000000000000194                __TBCCR1 = 0x194
                0x0000000000000196                __TBCCR2 = 0x196
                0x0000000000000198                __TBCCR3 = 0x198
                0x000000000000019a                __TBCCR4 = 0x19a
                0x000000000000019c                __TBCCR5 = 0x19c
                0x000000000000019e                __TBCCR6 = 0x19e
                0x0000000000000060                __UCA0CTL0 = 0x60
                0x0000000000000061                __UCA0CTL1 = 0x61
                0x0000000000000062                __UCA0BR0 = 0x62
                0x0000000000000063                __UCA0BR1 = 0x63
                0x0000000000000064                __UCA0MCTL = 0x64
                0x0000000000000065                __UCA0STAT = 0x65
                0x0000000000000066                __UCA0RXBUF = 0x66
                0x0000000000000067                __UCA0TXBUF = 0x67
                0x000000000000005d                __UCA0ABCTL = 0x5d
                0x000000000000005e                __UCA0IRTCTL = 0x5e
                0x000000000000005f                __UCA0IRRCTL = 0x5f
                0x0000000000000068                __UCB0CTL0 = 0x68
                0x0000000000000069                __UCB0CTL1 = 0x69
                0x000000000000006a                __UCB0BR0 = 0x6a
                0x000000000000006b                __UCB0BR1 = 0x6b
                0x000000000000006c                __UCB0I2CIE = 0x6c
                0x000000000000006d                __UCB0STAT = 0x6d
                0x000000000000006e                __UCB0RXBUF = 0x6e
                0x000000000000006f                __UCB0TXBUF = 0x6f
                0x0000000000000118                __UCB0I2COA = 0x118
                0x000000000000011a                __UCB0I2CSA = 0x11a
                0x00000000000000d0                __UCA1CTL0 = 0xd0
                0x00000000000000d1                __UCA1CTL1 = 0xd1
                0x00000000000000d2                __UCA1BR0 = 0xd2
                0x00000000000000d3                __UCA1BR1 = 0xd3
                0x00000000000000d4                __UCA1MCTL = 0xd4
                0x00000000000000d5                __UCA1STAT = 0xd5
                0x00000000000000d6                __UCA1RXBUF = 0xd6
                0x00000000000000d7                __UCA1TXBUF = 0xd7
                0x00000000000000cd                __UCA1ABCTL = 0xcd
                0x00000000000000ce                __UCA1IRTCTL = 0xce
                0x00000000000000cf                __UCA1IRRCTL = 0xcf
                0x00000000000000d8                __UCB1CTL0 = 0xd8
                0x00000000000000d9                __UCB1CTL1 = 0xd9
                0x00000000000000da                __UCB1BR0 = 0xda
                0x00000000000000db                __UCB1BR1 = 0xdb
                0x00000000000000dc                __UCB1I2CIE = 0xdc
                0x00000000000000dd                __UCB1STAT = 0xdd
                0x00000000000000de                __UCB1RXBUF = 0xde
                0x00000000000000df                __UCB1TXBUF = 0xdf
                0x000000000000017c                __UCB1I2COA = 0x17c
                0x000000000000017e                __UCB1I2CSA = 0x17e
                0x0000000000000120                __WDTCTL = 0x120
                0x00000000000010c0                __TLV_CHECKSUM = 0x10c0
                0x00000000000010f6                __TLV_DCO_30_TAG = 0x10f6
                0x00000000000010f7                __TLV_DCO_30_LEN = 0x10f7
                0x00000000000010da                __TLV_ADC12_1_TAG = 0x10da
                0x00000000000010db                __TLV_ADC12_1_LEN = 0x10db
                0x00000000000010f8                __CALDCO_16MHZ = 0x10f8
                0x00000000000010f9                __CALBC1_16MHZ = 0x10f9
                0x00000000000010fa                __CALDCO_12MHZ = 0x10fa
                0x00000000000010fb                __CALBC1_12MHZ = 0x10fb
                0x00000000000010fc                __CALDCO_8MHZ = 0x10fc
                0x00000000000010fd                __CALBC1_8MHZ = 0x10fd
                0x00000000000010fe                __CALDCO_1MHZ = 0x10fe
                0x00000000000010ff                __CALBC1_1MHZ = 0x10ff

.hash
 *(.hash)

.dynsym
 *(.dynsym)

.dynstr
 *(.dynstr)

.gnu.version
 *(.gnu.version)

.gnu.version_d
 *(.gnu.version_d)

.gnu.version_r
 *(.gnu.version_r)

.rel.init
 *(.rel.init)

.rela.init
 *(.rela.init)

.rel.fini
 *(.rel.fini)

.rela.fini
 *(.rela.fini)

.rel.text
 *(.rel.text .rel.text.* .rel.gnu.linkonce.t.*)

.rela.text
 *(.rela.text .rela.text.* .rela.gnu.linkonce.t.*)

.rel.rodata
 *(.rel.rodata .rel.rodata.* .rel.gnu.linkonce.r.*)

.rela.rodata
 *(.rela.rodata .rela.rodata.* .rela.gnu.linkonce.r.*)

.rel.data
 *(.rel.data .rel.data.* .rel.gnu.linkonce.d.*)

.rela.data
 *(.rela.data .rela.data.* .rela.gnu.linkonce.d.*)

.rel.bss
 *(.rel.bss .rel.bss.* .rel.gnu.linkonce.b.*)

.rela.bss
 *(.rela.bss .rela.bss.* .rela.gnu.linkonce.b.*)

.rel.ctors
 *(.rel.ctors)

.rela.ctors
 *(.rela.ctors)

.rel.dtors
 *(.rel.dtors)

.rela.dtors
 *(.rela.dtors)

.rel.got
 *(.rel.got)

.rela.got
 *(.rela.got)

.rel.plt
 *(.rel.plt)

.rela.plt
 *(.rela.plt)

.text           0x0000000000003100     0x7254
                0x0000000000003100                . = ALIGN (0x2)
 *(.init .init.*)
 *(.init0)
 .init0         0x0000000000003100        0x0 /usr/lib/gcc/msp430/4.6.3/mcpu-430x/mmpy-16/libcrt0.a(_reset_vector__.o)
                0x0000000000003100                _reset_vector__
 *(.init1)
 .init1         0x0000000000003100        0xc /usr/lib/gcc/msp430/4.6.3/mcpu-430x/mmpy-16/libcrt0.a(__watchdog_support.o)
                0x0000000000003100                __watchdog_support
 *(.init2)
 .init2         0x000000000000310c        0x4 /usr/lib/gcc/msp430/4.6.3/mcpu-430x/mmpy-16/libcrt0.a(__init_stack.o)
                0x000000000000310c                __init_stack
 *(.init3)
 .init3         0x0000000000003110        0x0 /usr/lib/gcc/msp430/4.6.3/mcpu-430x/mmpy-16/libcrt0.a(__low_level_init.o)
                0x0000000000003110                __low_level_init
 *(.init4)
 .init4         0x0000000000003110       0x18 /usr/lib/gcc/msp430/4.6.3/mcpu-430x/mmpy-16/libcrt0.a(_copy_data.o)
                0x0000000000003110                __do_copy_data
 .init4         0x0000000000003128       0x16 /usr/lib/gcc/msp430/4.6.3/mcpu-430x/mmpy-16/libcrt0.a(_clear_bss.o)
                0x0000000000003128                __do_clear_bss
 *(.init5)
 *(.init6)
 *(.init7)
 *(.init8)
 *(.init9)
 .init9         0x000000000000313e      0x310 obj_z1/contiki-z1-main.o
                0x000000000000313e                main
 *(.fini9)
 .fini9         0x000000000000344e        0x0 /usr/lib/gcc/msp430/4.6.3/mcpu-430x/mmpy-16/libcrt0.a(__stop_progExec__.o)
                0x000000000000344e                __stop_progExec__
 *(.fini8)
 *(.fini7)
 *(.fini6)
 *(.fini5)
 *(.fini4)
 *(.fini3)
 *(.fini2)
 *(.fini1)
 *(.fini0)
 .fini0         0x000000000000344e        0x6 /usr/lib/gcc/msp430/4.6.3/mcpu-430x/mmpy-16/libcrt0.a(_endless_loop__.o)
                0x000000000000344e                _endless_loop__
 *(.fini .fini.*)
                0x0000000000003454                . = ALIGN (0x2)
                0x0000000000003454                __ctors_start = .
 *(.ctors)
                0x0000000000003454                __ctors_end = .
                0x0000000000003454                __dtors_start = .
 *(.dtors)
                0x0000000000003454                __dtors_end = .
                0x0000000000003454                . = ALIGN (0x2)
 *(.text .text.* .gnu.linkonce.t.*)
 .text          0x0000000000003454        0x4 /usr/lib/gcc/msp430/4.6.3/mcpu-430x/mmpy-16/crt0ivtbl32.o
                0x0000000000003454                __isr_14
                0x0000000000003454                __isr_4
                0x0000000000003454                __isr_29
                0x0000000000003454                __isr_11
                0x0000000000003454                __isr_5
                0x0000000000003454                __isr_2
                0x0000000000003454                __isr_10
                0x0000000000003454                __isr_7
                0x0000000000003454                __isr_0
                0x0000000000003454                __isr_28
                0x0000000000003454                __isr_8
                0x0000000000003454                __isr_20
                0x0000000000003454                __isr_3
                0x0000000000003454                __isr_12
                0x0000000000003454                __isr_13
                0x0000000000003454                __isr_27
                0x0000000000003454                __isr_9
                0x0000000000003454                __isr_30
                0x0000000000003454                __isr_6
                0x0000000000003454                __isr_22
                0x0000000000003454                __isr_1
                0x0000000000003454                __isr_15
                0x0000000000003454                __isr_21
 .text.crt0     0x0000000000003458        0x0 /usr/lib/gcc/msp430/4.6.3/mcpu-430x/mmpy-16/crt0ivtbl32.o
 .text          0x0000000000003458      0x442 sdn-wise.co
                0x0000000000003764                uart_rx_callback
                0x00000000000037ac                rf_unicast_send
                0x00000000000037bc                rf_broadcast_send
 .text          0x000000000000389a      0x7f8 obj_z1/flowtable.o
                0x0000000000003a14                create_entry
                0x0000000000003a1a                create_window
                0x0000000000003a24                create_action
                0x0000000000003a8c                add_window
                0x0000000000003a96                add_action
                0x0000000000003aa0                print_entry
                0x0000000000003ada                print_flowtable
                0x0000000000003af8                flowtable_init
                0x0000000000003b22                get_window_from_array
                0x0000000000003b82                get_array_from_window
                0x0000000000003bc8                get_action_from_array
                0x0000000000003bd8                get_array_from_action
                0x0000000000003c10                get_entry_from_array
                0x0000000000003c82                get_array_from_entry
                0x0000000000003cee                get_array_from_entry_id
                0x0000000000003d1c                window_cmp
                0x0000000000003d5a                entry_cmp
                0x0000000000003daa                add_entry
                0x0000000000003de8                match_window
                0x0000000000003e62                run_action
                0x0000000000003f90                match_entry
                0x0000000000003ff6                match_packet
                0x0000000000004022                test_flowtable
 .text          0x0000000000004092      0x1ba obj_z1/packet-buffer.o
                0x0000000000004092                print_packet
                0x00000000000040b0                packet_deallocate
                0x00000000000040bc                print_packet_uart
                0x00000000000040fa                get_packet_from_array
                0x000000000000411c                get_payload_at
                0x0000000000004130                set_payload_at
                0x000000000000415a                restore_ttl
                0x0000000000004162                create_packet_empty
                0x000000000000418c                create_packet
                0x00000000000041e8                create_packet_payload
                0x0000000000004220                packet_buffer_init
                0x000000000000422a                test_packet_buffer
 .text          0x000000000000424c      0x1cc obj_z1/address.o
                0x000000000000424c                swap_addresses
                0x0000000000004270                print_address
                0x0000000000004272                print_address_list
                0x0000000000004284                purge_address_list
                0x00000000000042b2                fill_array_with_address
                0x00000000000042be                get_address_from_int
                0x00000000000042d0                get_address_from_array
                0x00000000000042e6                set_broadcast_address
                0x00000000000042f0                is_broadcast
                0x0000000000004308                address_cmp
                0x0000000000004322                address_list_contains
                0x000000000000434c                add_accepted_address
                0x0000000000004386                is_my_address
                0x00000000000043b0                address_list_init
                0x00000000000043c2                test_address_list
 .text          0x0000000000004418      0x196 obj_z1/neighbor-table.o
                0x0000000000004418                print_neighbor_table
                0x0000000000004438                purge_neighbor_table
                0x0000000000004466                neighbor_cmp
                0x0000000000004470                neighbor_table_contains
                0x000000000000449a                add_neighbor
                0x00000000000044e2                fill_payload_with_neighbors
                0x0000000000004542                neighbor_table_init
                0x0000000000004554                test_neighbor_table
 .text          0x00000000000045ae      0x39c obj_z1/packet-handler.o
                0x000000000000479e                handle_packet
                0x0000000000004928                test_handle_open_path
 .text          0x000000000000494a       0x9a obj_z1/node-conf.o
                0x000000000000494a                node_conf_init
                0x00000000000049c0                print_node_conf
 .text          0x00000000000049e4      0x298 obj_z1/packet-creator.o
                0x00000000000049e4                create_beacon
                0x0000000000004a34                create_data
                0x0000000000004a38                create_report
                0x0000000000004a92                create_reg_proxy
                0x0000000000004adc                create_and_send_request
                0x0000000000004c78                create_config
 .text          0x0000000000004c7c        0x6 obj_z1/contiki-z1-main.o
                0x0000000000004c7c                uip_log
 .text          0x0000000000004c82        0xc contiki-z1.a(contiki-z1-plat)
                0x0000000000004c82                init_platform
 .text          0x0000000000004c8e       0xe8 contiki-z1.a(msp430.o)
                0x0000000000004c8e                msp430_init_dco
                0x0000000000004cb6                msp430_add_lpm_req
                0x0000000000004cc2                msp430_remove_lpm_req
                0x0000000000004cce                splhigh_
                0x0000000000004cd6                msp430_sync_dco
                0x0000000000004d48                msp430_cpu_init
 .text          0x0000000000004d76      0x146 contiki-z1.a(leds.o)
                0x0000000000004e64                leds_init
                0x0000000000004e6e                leds_get
                0x0000000000004e74                leds_set
                0x0000000000004e7a                leds_on
                0x0000000000004e84                leds_off
                0x0000000000004e92                leds_toggle
                0x0000000000004e9c                leds_blink
 .text          0x0000000000004ebc       0x5c contiki-z1.a(watchdog.o)
                0x0000000000004ebc                __isr_26
                0x0000000000004ebc                watchdog_interrupt
                0x0000000000004ec2                watchdog_start
                0x0000000000004ed6                watchdog_periodic
                0x0000000000004ee8                watchdog_stop
                0x0000000000004efe                watchdog_init
                0x0000000000004f12                watchdog_reboot
 .text          0x0000000000004f18      0x350 contiki-z1.a(xmem.o)
                0x0000000000004f90                xmem_init
                0x0000000000004fae                xmem_pread
                0x000000000000507e                xmem_pwrite
                0x00000000000051b2                xmem_erase
 .text          0x0000000000005268       0x38 contiki-z1.a(spi.o)
                0x0000000000005268                spi_init
 .text          0x00000000000052a0      0xb94 contiki-z1.a(cc2420.o)
                0x00000000000056d6                cc2420_on
                0x00000000000056f8                cc2420_off
                0x0000000000005922                cc2420_get_channel
                0x0000000000005928                cc2420_set_channel
                0x0000000000005962                cc2420_set_pan_addr
                0x00000000000059ae                cc2420_interrupt
                0x00000000000059c6                cc2420_set_txpower
                0x00000000000059d4                cc2420_get_txpower
                0x0000000000005b30                cc2420_rssi
                0x0000000000005c7a                cc2420_set_cca_threshold
                0x0000000000005d44                cc2420_init
 .text          0x0000000000005e34       0x1a contiki-z1.a(cc2420-arch.o)
                0x0000000000005e34                cc2420_arch_init
 .text          0x0000000000005e4e       0x9a contiki-z1.a(node-id.o)
                0x0000000000005e4e                node_id_restore
                0x0000000000005e9a                node_id_burn
 .text          0x0000000000005ee8      0x158 contiki-z1.a(sensors.o)
                0x0000000000005fa6                sensors_first
                0x0000000000005fac                sensors_next
                0x0000000000005fd8                sensors_changed
                0x0000000000006002                sensors_find
 .text          0x0000000000006040       0xe6 contiki-z1.a(uart0.o)
                0x0000000000006040                uart0_active
                0x000000000000604e                uart0_set_input
                0x0000000000006054                uart0_writeb
                0x000000000000606c                uart0_init
                0x00000000000060c0                __isr_23
                0x00000000000060c0                uart0_rx_interrupt
 .text          0x0000000000006126       0x10 contiki-z1.a(uart0-putchar.o)
                0x0000000000006126                putchar
 .text          0x0000000000006136        0x0 contiki-z1.a(z1-sensors.o)
 .text          0x0000000000006136      0x394 contiki-z1.a(adxl345.o)
                0x000000000000624a                accm_read_axis
                0x00000000000062d0                accm_set_grange
                0x0000000000006300                accm_init
                0x0000000000006376                accm_stop
                0x00000000000063ce                accm_set_irq
                0x0000000000006406                port1_isr
                0x0000000000006406                __isr_18
 .text          0x00000000000064ca      0x172 contiki-z1.a(tmp102.o)
                0x00000000000064dc                tmp102_init
                0x0000000000006500                tmp102_stop
                0x0000000000006532                tmp102_write_reg
                0x000000000000656a                tmp102_read_reg
                0x00000000000065ca                tmp102_read_temp_raw
                0x00000000000065d2                tmp102_read_temp_x100
                0x000000000000662e                tmp102_read_temp_simple
 .text          0x000000000000663c      0x1e8 contiki-z1.a(clock.o)
                0x000000000000663c                __isr_24
                0x000000000000663c                timera1
                0x0000000000006746                clock_time
                0x0000000000006760                clock_set
                0x0000000000006776                clock_fine_max
                0x000000000000677c                clock_fine
                0x0000000000006788                clock_init
                0x00000000000067b0                clock_delay
                0x00000000000067bc                clock_wait
                0x00000000000067e4                clock_set_seconds
                0x00000000000067fc                clock_seconds
                0x0000000000006816                clock_counter
 .text          0x0000000000006824       0x78 contiki-z1.a(leds-arch.o)
                0x0000000000006824                leds_arch_init
                0x0000000000006832                leds_arch_get
                0x0000000000006862                leds_arch_set
 .text          0x000000000000689c       0x7e contiki-z1.a(rtimer-arch.o)
                0x000000000000689c                rtimer_arch_init
                0x00000000000068aa                rtimer_arch_now
                0x00000000000068b8                __isr_25
                0x00000000000068b8                timera0
                0x0000000000006914                rtimer_arch_schedule
 .text          0x000000000000691a       0x2a contiki-z1.a(autostart.o)
                0x000000000000691a                autostart_start
                0x0000000000006930                autostart_exit
 .text          0x0000000000006944       0xae contiki-z1.a(energest.o)
                0x0000000000006944                energest_init
                0x000000000000696c                energest_type_time
                0x00000000000069a8                energest_leveldevice_leveltime
                0x00000000000069ae                energest_type_set
                0x00000000000069ba                energest_flush
 .text          0x00000000000069f2      0x270 contiki-z1.a(etimer.o)
                0x0000000000006a62                etimer_request_poll
                0x0000000000006b6c                etimer_set
                0x0000000000006b7e                etimer_reset_with_new_interval
                0x0000000000006b9c                etimer_reset
                0x0000000000006bae                etimer_restart
                0x0000000000006bc0                etimer_adjust
                0x0000000000006bda                etimer_expired
                0x0000000000006be8                etimer_expiration_time
                0x0000000000006bfc                etimer_start_time
                0x0000000000006c04                etimer_pending
                0x0000000000006c10                etimer_next_expiration_time
                0x0000000000006c26                etimer_stop
 .text          0x0000000000006c62      0x1c4 contiki-z1.a(ctimer.o)
                0x0000000000006cfe                ctimer_init
                0x0000000000006d16                ctimer_set_with_process
                0x0000000000006d64                ctimer_set
                0x0000000000006d74                ctimer_reset
                0x0000000000006da0                ctimer_restart
                0x0000000000006dcc                ctimer_stop
                0x0000000000006df4                ctimer_expired
 .text          0x0000000000006e26      0x282 contiki-z1.a(process.o)
                0x0000000000006f26                process_alloc_event
                0x0000000000006f34                process_exit
                0x0000000000006f3e                process_init
                0x0000000000006f5a                process_run
                0x0000000000006fe6                process_nevents
                0x0000000000006ff4                process_post
                0x000000000000703e                process_post_synch
                0x0000000000007050                process_start
                0x0000000000007082                process_poll
                0x000000000000709a                process_is_running
 .text          0x00000000000070a8       0x50 contiki-z1.a(rtimer.o)
                0x00000000000070a8                rtimer_init
                0x00000000000070ae                rtimer_set
                0x00000000000070d2                rtimer_run_next
 .text          0x00000000000070f8       0x8c contiki-z1.a(timer.o)
                0x00000000000070f8                timer_set
                0x0000000000007114                timer_reset
                0x0000000000007122                timer_restart
                0x0000000000007136                timer_expired
                0x0000000000007160                timer_remaining
 .text          0x0000000000007184      0x102 contiki-z1.a(serial-line.o)
                0x0000000000007220                serial_line_input_byte
                0x000000000000726a                serial_line_init
 .text          0x0000000000007286       0xf6 contiki-z1.a(list.o)
                0x0000000000007286                list_init
                0x000000000000728c                list_head
                0x0000000000007290                list_copy
                0x0000000000007296                list_tail
                0x00000000000072a8                list_chop
                0x00000000000072cc                list_pop
                0x00000000000072da                list_remove
                0x000000000000730e                list_push
                0x0000000000007324                list_add
                0x000000000000734a                list_length
                0x000000000000735a                list_insert
                0x0000000000007370                list_item_next
 .text          0x000000000000737c      0x102 contiki-z1.a(memb.o)
                0x000000000000737c                memb_init
                0x00000000000073b2                memb_alloc
                0x00000000000073f0                memb_free
                0x000000000000742a                memb_inmemb
                0x0000000000007458                memb_numfree
 .text          0x000000000000747e        0xc contiki-z1.a(random.o)
                0x000000000000747e                random_init
                0x0000000000007484                random_rand
 .text          0x000000000000748a       0x96 contiki-z1.a(ringbuf.o)
                0x000000000000748a                ringbuf_init
                0x000000000000749e                ringbuf_put
                0x00000000000074d6                ringbuf_get
                0x0000000000007506                ringbuf_size
                0x000000000000750e                ringbuf_elements
 .text          0x0000000000007520       0x78 contiki-z1.a(broadcast.o)
                0x0000000000007556                broadcast_open
                0x0000000000007578                broadcast_close
                0x000000000000757e                broadcast_send
 .text          0x0000000000007598       0xd8 contiki-z1.a(rime.o)
                0x0000000000007634                rime_sniffer_add
                0x0000000000007640                rime_sniffer_remove
                0x000000000000764c                rime_output
 .text          0x0000000000007670       0x78 contiki-z1.a(unicast.o)
                0x00000000000076aa                unicast_open
                0x00000000000076cc                unicast_close
                0x00000000000076d2                unicast_send
 .text          0x00000000000076e8      0x13c contiki-z1.a(queuebuf.o)
                0x00000000000076e8                queuebuf_init
                0x00000000000076fa                queuebuf_numfree
                0x0000000000007704                queuebuf_new_from_packetbuf
                0x0000000000007752                queuebuf_update_attr_from_packetbuf
                0x0000000000007764                queuebuf_update_from_packetbuf
                0x0000000000007786                queuebuf_free
                0x00000000000077b0                queuebuf_to_packetbuf
                0x00000000000077e2                queuebuf_dataptr
                0x00000000000077fe                queuebuf_datalen
                0x0000000000007806                queuebuf_addr
                0x0000000000007814                queuebuf_attr
                0x0000000000007822                queuebuf_debug_print
 .text          0x0000000000007824      0x1be contiki-z1.a(packetbuf.o)
                0x0000000000007824                packetbuf_hdrreduce
                0x000000000000783e                packetbuf_set_datalen
                0x0000000000007844                packetbuf_hdrptr
                0x000000000000784a                packetbuf_datalen
                0x0000000000007850                packetbuf_hdrlen
                0x000000000000785a                packetbuf_dataptr
                0x0000000000007866                packetbuf_copyto
                0x00000000000078a0                packetbuf_compact
                0x00000000000078d6                packetbuf_totlen
                0x00000000000078e2                packetbuf_hdralloc
                0x000000000000791c                packetbuf_remaininglen
                0x000000000000792a                packetbuf_attr_clear
                0x0000000000007956                packetbuf_clear
                0x0000000000007968                packetbuf_copyfrom
                0x0000000000007992                packetbuf_attr_copyto
                0x00000000000079b2                packetbuf_attr_copyfrom
                0x00000000000079d4                packetbuf_holds_broadcast
 .text          0x00000000000079e2       0x2a contiki-z1.a(linkaddr.o)
                0x00000000000079e2                linkaddr_copy
                0x00000000000079ee                linkaddr_cmp
                0x0000000000007a00                linkaddr_set_node_addr
 .text          0x0000000000007a0c      0x392 contiki-z1.a(csma.o)
 .text          0x0000000000007d9e      0x652 contiki-z1.a(contikimac.o)
                0x00000000000083ec                contikimac_debug_print
 .text          0x00000000000083f0       0xae contiki-z1.a(contikimac-fram)
 .text          0x000000000000849e       0x12 contiki-z1.a(nullsec.o)
 .text          0x00000000000084b0      0x1b2 contiki-z1.a(i2cmaster.o)
                0x00000000000084b0                i2c_setrate
                0x00000000000084b6                i2c_receiveinit
                0x00000000000084ee                i2c_transmitinit
                0x0000000000008520                i2c_receive_n
                0x0000000000008564                i2c_busy
                0x000000000000856e                i2c_enable
                0x0000000000008592                i2c_disable
                0x00000000000085ac                i2c_transmit_n
                0x00000000000085c0                __isr_16
                0x00000000000085c0                i2c_tx_interrupt
                0x000000000000864a                i2c_rx_interrupt
                0x000000000000864a                __isr_17
 .text          0x0000000000008662      0x100 contiki-z1.a(button-sensor.o)
                0x00000000000086ec                irq_p2
                0x00000000000086ec                __isr_19
 .text          0x0000000000008762       0xb6 contiki-z1.a(compower.o)
                0x0000000000008762                compower_accumulate
                0x00000000000087cc                compower_clear
                0x00000000000087de                compower_init
                0x00000000000087e8                compower_attrconv
                0x00000000000087f8                compower_accumulate_attrs
 .text          0x0000000000008818      0x1c2 contiki-z1.a(broadcast-annou)
                0x000000000000896a                broadcast_announcement_init
                0x00000000000089ae                broadcast_announcement_stop
                0x00000000000089d0                broadcast_announcement_beacon_interval
 .text          0x00000000000089da       0x48 contiki-z1.a(abc.o)
                0x00000000000089da                abc_open
                0x00000000000089f8                abc_close
                0x00000000000089fe                abc_send
                0x0000000000008a04                abc_input
                0x0000000000008a12                abc_sent
 .text          0x0000000000008a22      0x114 contiki-z1.a(announcement.o)
                0x0000000000008a22                announcement_init
                0x0000000000008a2c                announcement_register
                0x0000000000008a66                announcement_remove
                0x0000000000008a72                announcement_remove_value
                0x0000000000008a94                announcement_set_value
                0x0000000000008abc                announcement_bump
                0x0000000000008ade                announcement_listen
                0x0000000000008aea                announcement_register_listen_callback
                0x0000000000008af0                announcement_register_observer_callback
                0x0000000000008af6                announcement_list
                0x0000000000008b00                announcement_heard
 .text          0x0000000000008b36       0x66 contiki-z1.a(channel.o)
                0x0000000000008b36                channel_init
                0x0000000000008b40                channel_open
                0x0000000000008b50                channel_close
                0x0000000000008b5c                channel_lookup
                0x0000000000008b7c                channel_set_attributes
 .text          0x0000000000008b9c       0x38 contiki-z1.a(chameleon.o)
                0x0000000000008b9c                chameleon_init
                0x0000000000008ba2                chameleon_parse
                0x0000000000008bb2                chameleon_create
                0x0000000000008bce                chameleon_hdrsize
 .text          0x0000000000008bd4       0xb6 contiki-z1.a(mac-sequence.o)
                0x0000000000008bd4                mac_sequence_is_duplicate
                0x0000000000008c26                mac_sequence_register_seqno
 .text          0x0000000000008c8a      0x1cc contiki-z1.a(framer-802154.o)
 .text          0x0000000000008e56      0x5f8 contiki-z1.a(frame802154.o)
                0x0000000000008e56                frame802154_get_pan_id
                0x0000000000008e5c                frame802154_set_pan_id
                0x0000000000008e62                frame802154_has_panid
                0x0000000000008fec                frame802154_check_dest_panid
                0x0000000000009028                frame802154_is_broadcast_addr
                0x000000000000904c                frame802154_extract_linkaddr
                0x00000000000090d8                frame802154_hdrlen
                0x000000000000910a                frame802154_create_fcf
                0x0000000000009178                frame802154_create
                0x000000000000924c                frame802154_parse_fcf
                0x00000000000092d6                frame802154_parse
 .text          0x000000000000944e       0x14 contiki-z1.a(mac.o)
                0x000000000000944e                mac_call_sent_callback
 .text          0x0000000000009462      0x338 contiki-z1.a(chameleon-bitop)
                0x00000000000094b2                get_bits
                0x00000000000095fc                set_bits
 .text          0x000000000000979a        0x0 /usr/lib/gcc/msp430/4.6.3/mcpu-430x/mmpy-16/libgcc.a(_mulsi3.o)
 .text.libgcc   0x000000000000979a       0x2a /usr/lib/gcc/msp430/4.6.3/mcpu-430x/mmpy-16/libgcc.a(_mulsi3.o)
                0x000000000000979a                __mulsi3
 .text          0x00000000000097c4        0x0 /usr/lib/gcc/msp430/4.6.3/mcpu-430x/mmpy-16/libgcc.a(_udivmod16.o)
 .text.libgcc   0x00000000000097c4       0x22 /usr/lib/gcc/msp430/4.6.3/mcpu-430x/mmpy-16/libgcc.a(_udivmod16.o)
                0x00000000000097c4                __udivhi3
                0x00000000000097c4                __ext_udivmod16
                0x00000000000097de                __umodhi3
 .text          0x00000000000097e6        0x0 /usr/lib/gcc/msp430/4.6.3/mcpu-430x/mmpy-16/libgcc.a(_divmod16.o)
 .text.libgcc   0x00000000000097e6       0x3a /usr/lib/gcc/msp430/4.6.3/mcpu-430x/mmpy-16/libgcc.a(_divmod16.o)
                0x00000000000097e6                __ext_divmod16
                0x00000000000097e6                __divhi3
                0x0000000000009818                __modhi3
 .text          0x0000000000009820        0x0 /usr/lib/gcc/msp430/4.6.3/mcpu-430x/mmpy-16/libgcc.a(_udivmod32.o)
 .text.libgcc   0x0000000000009820       0x38 /usr/lib/gcc/msp430/4.6.3/mcpu-430x/mmpy-16/libgcc.a(_udivmod32.o)
                0x0000000000009820                __udivsi3
                0x0000000000009820                __ext_udivmod32
                0x000000000000984e                __umodsi3
 .text          0x0000000000009858       0x28 /usr/lib/gcc/msp430/4.6.3/../../../../msp430/lib/mcpu-430x/mmpy-16/libc.a(strncmp.o)
                0x0000000000009858                strncmp
 .text          0x0000000000009880       0x20 /usr/lib/gcc/msp430/4.6.3/../../../../msp430/lib/mcpu-430x/mmpy-16/libc.a(memcmp.o)
                0x0000000000009880                memcmp
 .text          0x00000000000098a0       0xe4 /usr/lib/gcc/msp430/4.6.3/../../../../msp430/lib/mcpu-430x/mmpy-16/libc.a(memcpy.o)
                0x00000000000098a0                memcpy
 .text          0x0000000000009984       0x5c /usr/lib/gcc/msp430/4.6.3/../../../../msp430/lib/mcpu-430x/mmpy-16/libc.a(memset.o)
                0x0000000000009984                memset
 .text          0x00000000000099e0       0x1e /usr/lib/gcc/msp430/4.6.3/../../../../msp430/lib/mcpu-430x/mmpy-16/libc.a(printf.o)
                0x00000000000099e0                printf
                0x00000000000099f0                vprintf
 .text          0x00000000000099fe      0x818 /usr/lib/gcc/msp430/4.6.3/../../../../msp430/lib/mcpu-430x/mmpy-16/libc.a(vuprintf.o)
                0x0000000000009b7a                vuprintf
 .text          0x000000000000a216       0x2c /usr/lib/gcc/msp430/4.6.3/../../../../msp430/lib/mcpu-430x/mmpy-16/libc.a(puts.o)
                0x000000000000a216                puts
 .text          0x000000000000a242       0x54 /usr/lib/gcc/msp430/4.6.3/../../../../msp430/lib/mcpu-430x/mmpy-16/libc.a(rand.o)
                0x000000000000a242                rand_r
                0x000000000000a266                rand
                0x000000000000a28c                srand
 .text          0x000000000000a296        0x0 /usr/lib/gcc/msp430/4.6.3/mcpu-430x/mmpy-16/libgcc.a(_udivmod64.o)
 .text.libgcc   0x000000000000a296       0xbc /usr/lib/gcc/msp430/4.6.3/mcpu-430x/mmpy-16/libgcc.a(_udivmod64.o)
                0x000000000000a296                __xabi_udivmod64
                0x000000000000a2e8                __udivdi3
                0x000000000000a302                __umoddi3
                0x000000000000a324                __udivmoddi4
 .text          0x000000000000a352        0x0 /usr/lib/gcc/msp430/4.6.3/mcpu-430x/mmpy-16/libcrt0.a(_reset_vector__.o)
 .text          0x000000000000a352        0x0 /usr/lib/gcc/msp430/4.6.3/mcpu-430x/mmpy-16/libcrt0.a(__watchdog_support.o)
 .text          0x000000000000a352        0x0 /usr/lib/gcc/msp430/4.6.3/mcpu-430x/mmpy-16/libcrt0.a(__init_stack.o)
 .text          0x000000000000a352        0x0 /usr/lib/gcc/msp430/4.6.3/mcpu-430x/mmpy-16/libcrt0.a(__low_level_init.o)
 .text          0x000000000000a352        0x0 /usr/lib/gcc/msp430/4.6.3/mcpu-430x/mmpy-16/libcrt0.a(_copy_data.o)
 .text          0x000000000000a352        0x0 /usr/lib/gcc/msp430/4.6.3/mcpu-430x/mmpy-16/libcrt0.a(_clear_bss.o)
 .text          0x000000000000a352        0x0 /usr/lib/gcc/msp430/4.6.3/mcpu-430x/mmpy-16/libcrt0.a(__stop_progExec__.o)
 .text          0x000000000000a352        0x0 /usr/lib/gcc/msp430/4.6.3/mcpu-430x/mmpy-16/libcrt0.a(_endless_loop__.o)
 .text          0x000000000000a352        0x0 /usr/lib/gcc/msp430/4.6.3/mcpu-430x/mmpy-16/libcrt0.a(_unexpected_.o)
 .text.crt0     0x000000000000a352        0x2 /usr/lib/gcc/msp430/4.6.3/mcpu-430x/mmpy-16/libcrt0.a(_unexpected_.o)
                0x000000000000a352                _unexpected_
                0x000000000000a354                . = ALIGN (0x2)

.rodata         0x000000000000a354      0x3ea
                0x000000000000a354                . = ALIGN (0x2)
 *(.rodata .rodata.* .gnu.linkonce.r.*)
 .rodata        0x000000000000a354       0xcc sdn-wise.co
                0x000000000000a364                autostart_processes
 .rodata        0x000000000000a420       0x2a obj_z1/flowtable.o
 .rodata        0x000000000000a44a       0x2e obj_z1/packet-handler.o
                0x000000000000a46f                conf_size
 .rodata        0x000000000000a478      0x117 obj_z1/contiki-z1-main.o
 .rodata        0x000000000000a58f       0x2c contiki-z1.a(xmem.o)
 *fill*         0x000000000000a5bb        0x1 00
 .rodata        0x000000000000a5bc       0x70 contiki-z1.a(cc2420.o)
                0x000000000000a5ee                cc2420_aes_128_driver
                0x000000000000a5f2                cc2420_driver
 .rodata        0x000000000000a62c        0x8 contiki-z1.a(sensors.o)
 .rodata        0x000000000000a634       0x2e contiki-z1.a(adxl345.o)
                0x000000000000a644                adxl345
 .rodata        0x000000000000a662       0x16 contiki-z1.a(tmp102.o)
                0x000000000000a670                tmp102
 .rodata        0x000000000000a678        0xc contiki-z1.a(etimer.o)
 .rodata        0x000000000000a684        0xf contiki-z1.a(ctimer.o)
 .rodata        0x000000000000a693        0xe contiki-z1.a(serial-line.o)
 *fill*         0x000000000000a6a1        0x1 00
 .rodata        0x000000000000a6a2        0x8 contiki-z1.a(broadcast.o)
 .rodata        0x000000000000a6aa        0xc contiki-z1.a(rime.o)
                0x000000000000a6b0                rime_driver
 .rodata        0x000000000000a6b6        0xa contiki-z1.a(unicast.o)
 .rodata        0x000000000000a6c0        0x2 contiki-z1.a(linkaddr.o)
                0x000000000000a6c0                linkaddr_null
 .rodata        0x000000000000a6c2       0x14 contiki-z1.a(csma.o)
                0x000000000000a6c8                csma_driver
 .rodata        0x000000000000a6d6       0x1c contiki-z1.a(contikimac.o)
                0x000000000000a6e2                contikimac_driver
 .rodata        0x000000000000a6f2        0x6 contiki-z1.a(contikimac-fram)
                0x000000000000a6f2                contikimac_framer
 .rodata        0x000000000000a6f8       0x10 contiki-z1.a(nullsec.o)
                0x000000000000a700                nullsec_driver
 .rodata        0x000000000000a708       0x10 contiki-z1.a(button-sensor.o)
                0x000000000000a710                button_sensor
 .rodata        0x000000000000a718        0x4 contiki-z1.a(broadcast-annou)
 .rodata        0x000000000000a71c        0x2 contiki-z1.a(abc.o)
 .rodata        0x000000000000a71e        0x6 contiki-z1.a(framer-802154.o)
                0x000000000000a71e                framer_802154
 .rodata        0x000000000000a724        0x2 contiki-z1.a(frame802154.o)
 .rodata        0x000000000000a726       0x10 contiki-z1.a(chameleon-bitop)
                0x000000000000a726                chameleon_bitopt
 .rodata        0x000000000000a736        0x7 /usr/lib/gcc/msp430/4.6.3/../../../../msp430/lib/mcpu-430x/mmpy-16/libc.a(vuprintf.o)
                0x000000000000a73e                . = ALIGN (0x2)
 *fill*         0x000000000000a73d        0x1 00
                0x000000000000a73e                _etext = .

.data           0x0000000000001100      0x230 load address 0x000000000000a73e
                0x0000000000001100                . = ALIGN (0x2)
                0x0000000000001100                PROVIDE (__data_start, .)
 *(.data .data.* .gnu.linkonce.d.*)
 .data          0x0000000000001100        0x0 /usr/lib/gcc/msp430/4.6.3/mcpu-430x/mmpy-16/crt0ivtbl32.o
 .data          0x0000000000001100       0x50 sdn-wise.co
                0x0000000000001100                data_timer_proc
                0x000000000000110a                report_timer_proc
                0x0000000000001114                beacon_timer_proc
                0x000000000000111e                timer_proc
                0x0000000000001128                packet_handler_proc
                0x0000000000001132                rf_b_send_proc
                0x000000000000113c                rf_u_send_proc
                0x0000000000001146                main_proc
 .data          0x0000000000001150       0xae obj_z1/flowtable.o
 .data          0x00000000000011fe       0x52 obj_z1/packet-buffer.o
 .data          0x0000000000001250        0x8 obj_z1/address.o
 .data          0x0000000000001258        0x8 obj_z1/neighbor-table.o
 .data          0x0000000000001260       0x26 obj_z1/packet-handler.o
                0x0000000000001274                conf_ptr
 .data          0x0000000000001286        0x0 obj_z1/node-conf.o
 .data          0x0000000000001286       0x1c obj_z1/packet-creator.o
 .data          0x00000000000012a2        0x0 obj_z1/contiki-z1-main.o
 .data          0x00000000000012a2        0x0 contiki-z1.a(contiki-z1-plat)
 .data          0x00000000000012a2        0x2 contiki-z1.a(msp430.o)
 .data          0x00000000000012a4        0x0 contiki-z1.a(leds.o)
 .data          0x00000000000012a4        0x0 contiki-z1.a(watchdog.o)
 .data          0x00000000000012a4        0x0 contiki-z1.a(xmem.o)
 .data          0x00000000000012a4        0x0 contiki-z1.a(spi.o)
 .data          0x00000000000012a4        0xc contiki-z1.a(cc2420.o)
                0x00000000000012a4                cc2420_process
 .data          0x00000000000012b0        0x0 contiki-z1.a(cc2420-arch.o)
 .data          0x00000000000012b0        0x0 contiki-z1.a(node-id.o)
 .data          0x00000000000012b0        0xa contiki-z1.a(sensors.o)
                0x00000000000012b0                sensors_process
 .data          0x00000000000012ba        0x0 contiki-z1.a(uart0.o)
 .data          0x00000000000012ba        0x0 contiki-z1.a(uart0-putchar.o)
 .data          0x00000000000012ba        0x8 contiki-z1.a(z1-sensors.o)
                0x00000000000012ba                sensors
 .data          0x00000000000012c2       0x20 contiki-z1.a(adxl345.o)
                0x00000000000012c2                accmeter_process
 .data          0x00000000000012e2        0x0 contiki-z1.a(tmp102.o)
 .data          0x00000000000012e2        0x0 contiki-z1.a(clock.o)
 .data          0x00000000000012e2        0x0 contiki-z1.a(leds-arch.o)
 .data          0x00000000000012e2        0x0 contiki-z1.a(rtimer-arch.o)
 .data          0x00000000000012e2        0x0 contiki-z1.a(autostart.o)
 .data          0x00000000000012e2        0x0 contiki-z1.a(energest.o)
 .data          0x00000000000012e2        0xa contiki-z1.a(etimer.o)
                0x00000000000012e2                etimer_process
 .data          0x00000000000012ec        0xa contiki-z1.a(ctimer.o)
                0x00000000000012ec                ctimer_process
 .data          0x00000000000012f6        0x0 contiki-z1.a(process.o)
 .data          0x00000000000012f6        0x0 contiki-z1.a(rtimer.o)
 .data          0x00000000000012f6        0x0 contiki-z1.a(timer.o)
 .data          0x00000000000012f6        0xa contiki-z1.a(serial-line.o)
                0x00000000000012f6                serial_line_process
 .data          0x0000000000001300        0x0 contiki-z1.a(list.o)
 .data          0x0000000000001300        0x0 contiki-z1.a(memb.o)
 .data          0x0000000000001300        0x0 contiki-z1.a(random.o)
 .data          0x0000000000001300        0x0 contiki-z1.a(ringbuf.o)
 .data          0x0000000000001300        0x0 contiki-z1.a(broadcast.o)
 .data          0x0000000000001300        0x0 contiki-z1.a(rime.o)
 .data          0x0000000000001300        0x0 contiki-z1.a(unicast.o)
 .data          0x0000000000001300       0x10 contiki-z1.a(queuebuf.o)
 .data          0x0000000000001310        0x0 contiki-z1.a(packetbuf.o)
 .data          0x0000000000001310        0x0 contiki-z1.a(linkaddr.o)
 .data          0x0000000000001310       0x18 contiki-z1.a(csma.o)
 .data          0x0000000000001328        0x0 contiki-z1.a(contikimac.o)
 .data          0x0000000000001328        0x0 contiki-z1.a(contikimac-fram)
 .data          0x0000000000001328        0x0 contiki-z1.a(nullsec.o)
 .data          0x0000000000001328        0x1 contiki-z1.a(i2cmaster.o)
                0x0000000000001328                prescale_lsb
 .data          0x0000000000001329        0x0 contiki-z1.a(button-sensor.o)
 .data          0x0000000000001329        0x0 contiki-z1.a(compower.o)
 .data          0x0000000000001329        0x0 contiki-z1.a(broadcast-annou)
 .data          0x0000000000001329        0x0 contiki-z1.a(abc.o)
 .data          0x0000000000001329        0x0 contiki-z1.a(announcement.o)
 .data          0x0000000000001329        0x0 contiki-z1.a(channel.o)
 .data          0x0000000000001329        0x0 contiki-z1.a(chameleon.o)
 .data          0x0000000000001329        0x0 contiki-z1.a(mac-sequence.o)
 .data          0x0000000000001329        0x0 contiki-z1.a(framer-802154.o)
 *fill*         0x0000000000001329        0x1 00
 .data          0x000000000000132a        0x2 contiki-z1.a(frame802154.o)
 .data          0x000000000000132c        0x0 contiki-z1.a(mac.o)
 .data          0x000000000000132c        0x0 contiki-z1.a(chameleon-bitop)
 .data          0x000000000000132c        0x0 /usr/lib/gcc/msp430/4.6.3/mcpu-430x/mmpy-16/libgcc.a(_mulsi3.o)
 .data          0x000000000000132c        0x0 /usr/lib/gcc/msp430/4.6.3/mcpu-430x/mmpy-16/libgcc.a(_udivmod16.o)
 .data          0x000000000000132c        0x0 /usr/lib/gcc/msp430/4.6.3/mcpu-430x/mmpy-16/libgcc.a(_divmod16.o)
 .data          0x000000000000132c        0x0 /usr/lib/gcc/msp430/4.6.3/mcpu-430x/mmpy-16/libgcc.a(_udivmod32.o)
 .data          0x000000000000132c        0x0 /usr/lib/gcc/msp430/4.6.3/../../../../msp430/lib/mcpu-430x/mmpy-16/libc.a(strncmp.o)
 .data          0x000000000000132c        0x0 /usr/lib/gcc/msp430/4.6.3/../../../../msp430/lib/mcpu-430x/mmpy-16/libc.a(memcmp.o)
 .data          0x000000000000132c        0x0 /usr/lib/gcc/msp430/4.6.3/../../../../msp430/lib/mcpu-430x/mmpy-16/libc.a(memcpy.o)
 .data          0x000000000000132c        0x0 /usr/lib/gcc/msp430/4.6.3/../../../../msp430/lib/mcpu-430x/mmpy-16/libc.a(memset.o)
 .data          0x000000000000132c        0x0 /usr/lib/gcc/msp430/4.6.3/../../../../msp430/lib/mcpu-430x/mmpy-16/libc.a(printf.o)
 .data          0x000000000000132c        0x0 /usr/lib/gcc/msp430/4.6.3/../../../../msp430/lib/mcpu-430x/mmpy-16/libc.a(vuprintf.o)
 .data          0x000000000000132c        0x0 /usr/lib/gcc/msp430/4.6.3/../../../../msp430/lib/mcpu-430x/mmpy-16/libc.a(puts.o)
 .data          0x000000000000132c        0x4 /usr/lib/gcc/msp430/4.6.3/../../../../msp430/lib/mcpu-430x/mmpy-16/libc.a(rand.o)
 .data          0x0000000000001330        0x0 /usr/lib/gcc/msp430/4.6.3/mcpu-430x/mmpy-16/libgcc.a(_udivmod64.o)
 .data          0x0000000000001330        0x0 /usr/lib/gcc/msp430/4.6.3/mcpu-430x/mmpy-16/libcrt0.a(_reset_vector__.o)
 .data          0x0000000000001330        0x0 /usr/lib/gcc/msp430/4.6.3/mcpu-430x/mmpy-16/libcrt0.a(__watchdog_support.o)
 .data          0x0000000000001330        0x0 /usr/lib/gcc/msp430/4.6.3/mcpu-430x/mmpy-16/libcrt0.a(__init_stack.o)
 .data          0x0000000000001330        0x0 /usr/lib/gcc/msp430/4.6.3/mcpu-430x/mmpy-16/libcrt0.a(__low_level_init.o)
 .data          0x0000000000001330        0x0 /usr/lib/gcc/msp430/4.6.3/mcpu-430x/mmpy-16/libcrt0.a(_copy_data.o)
 .data          0x0000000000001330        0x0 /usr/lib/gcc/msp430/4.6.3/mcpu-430x/mmpy-16/libcrt0.a(_clear_bss.o)
 .data          0x0000000000001330        0x0 /usr/lib/gcc/msp430/4.6.3/mcpu-430x/mmpy-16/libcrt0.a(__stop_progExec__.o)
 .data          0x0000000000001330        0x0 /usr/lib/gcc/msp430/4.6.3/mcpu-430x/mmpy-16/libcrt0.a(_endless_loop__.o)
 .data          0x0000000000001330        0x0 /usr/lib/gcc/msp430/4.6.3/mcpu-430x/mmpy-16/libcrt0.a(_unexpected_.o)
                0x0000000000001330                . = ALIGN (0x2)
                0x0000000000001330                _edata = .
                0x000000000000a73e                PROVIDE (__data_load_start, LOADADDR (.data))
                0x0000000000000230                PROVIDE (__data_size, SIZEOF (.data))

.bss            0x0000000000001330     0x12aa load address 0x000000000000a96e
                0x0000000000001330                PROVIDE (__bss_start, .)
 *(.bss .bss.*)
 .bss           0x0000000000001330        0x0 /usr/lib/gcc/msp430/4.6.3/mcpu-430x/mmpy-16/crt0ivtbl32.o
 .bss           0x0000000000001330       0xc4 sdn-wise.co
 .bss           0x00000000000013f4      0x408 obj_z1/flowtable.o
 .bss           0x00000000000017fc      0x1e0 obj_z1/packet-buffer.o
 .bss           0x00000000000019dc       0x16 obj_z1/address.o
 .bss           0x00000000000019f2       0xf8 obj_z1/neighbor-table.o
 .bss           0x0000000000001aea        0x0 obj_z1/packet-handler.o
 .bss           0x0000000000001aea        0x0 obj_z1/node-conf.o
 .bss           0x0000000000001aea        0x0 obj_z1/packet-creator.o
 .bss           0x0000000000001aea        0x4 obj_z1/contiki-z1-main.o
 .bss           0x0000000000001aee        0x0 contiki-z1.a(contiki-z1-plat)
 .bss           0x0000000000001aee        0x0 contiki-z1.a(msp430.o)
 .bss           0x0000000000001aee        0x1 contiki-z1.a(leds.o)
 *fill*         0x0000000000001aef        0x1 00
 .bss           0x0000000000001af0        0x2 contiki-z1.a(watchdog.o)
 .bss           0x0000000000001af2        0x0 contiki-z1.a(xmem.o)
 .bss           0x0000000000001af2        0x2 contiki-z1.a(spi.o)
                0x0000000000001af2                spi_busy
 .bss           0x0000000000001af4        0xa contiki-z1.a(cc2420.o)
 .bss           0x0000000000001afe        0x0 contiki-z1.a(cc2420-arch.o)
 .bss           0x0000000000001afe        0x2 contiki-z1.a(node-id.o)
                0x0000000000001afe                node_id
 .bss           0x0000000000001b00        0x6 contiki-z1.a(sensors.o)
 .bss           0x0000000000001b06        0x4 contiki-z1.a(uart0.o)
 .bss           0x0000000000001b0a        0x0 contiki-z1.a(uart0-putchar.o)
 .bss           0x0000000000001b0a        0x0 contiki-z1.a(z1-sensors.o)
 .bss           0x0000000000001b0a       0x16 contiki-z1.a(adxl345.o)
 .bss           0x0000000000001b20        0x1 contiki-z1.a(tmp102.o)
 *fill*         0x0000000000001b21        0x1 00
 .bss           0x0000000000001b22        0xa contiki-z1.a(clock.o)
 .bss           0x0000000000001b2c        0x0 contiki-z1.a(leds-arch.o)
 .bss           0x0000000000001b2c        0x0 contiki-z1.a(rtimer-arch.o)
 .bss           0x0000000000001b2c        0x0 contiki-z1.a(autostart.o)
 .bss           0x0000000000001b2c        0x0 contiki-z1.a(energest.o)
 .bss           0x0000000000001b2c        0x6 contiki-z1.a(etimer.o)
 .bss           0x0000000000001b32        0x4 contiki-z1.a(ctimer.o)
 .bss           0x0000000000001b36       0x38 contiki-z1.a(process.o)
                0x0000000000001b36                process_current
                0x0000000000001b38                process_list
 .bss           0x0000000000001b6e        0x2 contiki-z1.a(rtimer.o)
 .bss           0x0000000000001b70        0x0 contiki-z1.a(timer.o)
 .bss           0x0000000000001b70      0x10a contiki-z1.a(serial-line.o)
 .bss           0x0000000000001c7a        0x0 contiki-z1.a(list.o)
 .bss           0x0000000000001c7a        0x0 contiki-z1.a(memb.o)
 .bss           0x0000000000001c7a        0x0 contiki-z1.a(random.o)
 .bss           0x0000000000001c7a        0x0 contiki-z1.a(ringbuf.o)
 .bss           0x0000000000001c7a        0x0 contiki-z1.a(broadcast.o)
 .bss           0x0000000000001c7a        0x2 contiki-z1.a(rime.o)
 .bss           0x0000000000001c7c        0x0 contiki-z1.a(unicast.o)
 .bss           0x0000000000001c7c      0x610 contiki-z1.a(queuebuf.o)
 .bss           0x000000000000228c       0x86 contiki-z1.a(packetbuf.o)
 .bss           0x0000000000002312        0x0 contiki-z1.a(linkaddr.o)
 .bss           0x0000000000002312       0xb4 contiki-z1.a(csma.o)
 .bss           0x00000000000023c6       0x32 contiki-z1.a(contikimac.o)
 .bss           0x00000000000023f8        0x0 contiki-z1.a(contikimac-fram)
 .bss           0x00000000000023f8        0x0 contiki-z1.a(nullsec.o)
 .bss           0x00000000000023f8        0x4 contiki-z1.a(i2cmaster.o)
                0x00000000000023f8                prescale_msb
 .bss           0x00000000000023fc        0x8 contiki-z1.a(button-sensor.o)
 .bss           0x0000000000002404        0x8 contiki-z1.a(compower.o)
 .bss           0x000000000000240c       0x46 contiki-z1.a(broadcast-annou)
 .bss           0x0000000000002452        0x0 contiki-z1.a(abc.o)
 .bss           0x0000000000002452        0x6 contiki-z1.a(announcement.o)
 .bss           0x0000000000002458        0x2 contiki-z1.a(channel.o)
 .bss           0x000000000000245a        0x0 contiki-z1.a(chameleon.o)
 .bss           0x000000000000245a       0x80 contiki-z1.a(mac-sequence.o)
 .bss           0x00000000000024da        0x2 contiki-z1.a(framer-802154.o)
 .bss           0x00000000000024dc        0x0 contiki-z1.a(frame802154.o)
 .bss           0x00000000000024dc        0x0 contiki-z1.a(mac.o)
 .bss           0x00000000000024dc        0x0 contiki-z1.a(chameleon-bitop)
 .bss           0x00000000000024dc        0x0 /usr/lib/gcc/msp430/4.6.3/mcpu-430x/mmpy-16/libgcc.a(_mulsi3.o)
 .bss           0x00000000000024dc        0x0 /usr/lib/gcc/msp430/4.6.3/mcpu-430x/mmpy-16/libgcc.a(_udivmod16.o)
 .bss           0x00000000000024dc        0x0 /usr/lib/gcc/msp430/4.6.3/mcpu-430x/mmpy-16/libgcc.a(_divmod16.o)
 .bss           0x00000000000024dc        0x0 /usr/lib/gcc/msp430/4.6.3/mcpu-430x/mmpy-16/libgcc.a(_udivmod32.o)
 .bss           0x00000000000024dc        0x0 /usr/lib/gcc/msp430/4.6.3/../../../../msp430/lib/mcpu-430x/mmpy-16/libc.a(strncmp.o)
 .bss           0x00000000000024dc        0x0 /usr/lib/gcc/msp430/4.6.3/../../../../msp430/lib/mcpu-430x/mmpy-16/libc.a(memcmp.o)
 .bss           0x00000000000024dc        0x0 /usr/lib/gcc/msp430/4.6.3/../../../../msp430/lib/mcpu-430x/mmpy-16/libc.a(memcpy.o)
 .bss           0x00000000000024dc        0x0 /usr/lib/gcc/msp430/4.6.3/../../../../msp430/lib/mcpu-430x/mmpy-16/libc.a(memset.o)
 .bss           0x00000000000024dc        0x0 /usr/lib/gcc/msp430/4.6.3/../../../../msp430/lib/mcpu-430x/mmpy-16/libc.a(printf.o)
 .bss           0x00000000000024dc        0x0 /usr/lib/gcc/msp430/4.6.3/../../../../msp430/lib/mcpu-430x/mmpy-16/libc.a(vuprintf.o)
 .bss           0x00000000000024dc        0x0 /usr/lib/gcc/msp430/4.6.3/../../../../msp430/lib/mcpu-430x/mmpy-16/libc.a(puts.o)
 .bss           0x00000000000024dc        0x0 /usr/lib/gcc/msp430/4.6.3/../../../../msp430/lib/mcpu-430x/mmpy-16/libc.a(rand.o)
 .bss           0x00000000000024dc        0x0 /usr/lib/gcc/msp430/4.6.3/mcpu-430x/mmpy-16/libgcc.a(_udivmod64.o)
 .bss           0x00000000000024dc        0x0 /usr/lib/gcc/msp430/4.6.3/mcpu-430x/mmpy-16/libcrt0.a(_reset_vector__.o)
 .bss           0x00000000000024dc        0x0 /usr/lib/gcc/msp430/4.6.3/mcpu-430x/mmpy-16/libcrt0.a(__watchdog_support.o)
 .bss           0x00000000000024dc        0x0 /usr/lib/gcc/msp430/4.6.3/mcpu-430x/mmpy-16/libcrt0.a(__init_stack.o)
 .bss           0x00000000000024dc        0x0 /usr/lib/gcc/msp430/4.6.3/mcpu-430x/mmpy-16/libcrt0.a(__low_level_init.o)
 .bss           0x00000000000024dc        0x0 /usr/lib/gcc/msp430/4.6.3/mcpu-430x/mmpy-16/libcrt0.a(_copy_data.o)
 .bss           0x00000000000024dc        0x0 /usr/lib/gcc/msp430/4.6.3/mcpu-430x/mmpy-16/libcrt0.a(_clear_bss.o)
 .bss           0x00000000000024dc        0x0 /usr/lib/gcc/msp430/4.6.3/mcpu-430x/mmpy-16/libcrt0.a(__stop_progExec__.o)
 .bss           0x00000000000024dc        0x0 /usr/lib/gcc/msp430/4.6.3/mcpu-430x/mmpy-16/libcrt0.a(_endless_loop__.o)
 .bss           0x00000000000024dc        0x0 /usr/lib/gcc/msp430/4.6.3/mcpu-430x/mmpy-16/libcrt0.a(_unexpected_.o)
 *(COMMON)
 COMMON         0x00000000000024dc       0x14 obj_z1/flowtable.o
                0x00000000000024dc                status_register
 COMMON         0x00000000000024f0       0x18 obj_z1/node-conf.o
                0x00000000000024f0                conf
 COMMON         0x0000000000002508        0x2 contiki-z1.a(msp430.o)
                0x0000000000002508                msp430_dco_required
 COMMON         0x000000000000250a       0x10 contiki-z1.a(cc2420.o)
                0x000000000000250a                cc2420_last_rssi
                0x000000000000250c                cc2420_sfd_start_time
                0x000000000000250e                cc2420_time_of_departure
                0x0000000000002510                cc2420_time_of_arrival
                0x0000000000002512                cc2420_last_correlation
                0x0000000000002514                cc2420_authority_level_of_sender
                0x0000000000002516                cc2420_sfd_counter
                0x0000000000002518                cc2420_sfd_end_time
 COMMON         0x000000000000251a        0x8 contiki-z1.a(node-id.o)
                0x000000000000251a                node_mac
 COMMON         0x0000000000002522        0x1 contiki-z1.a(sensors.o)
                0x0000000000002522                sensors_event
 *fill*         0x0000000000002523        0x1 00
 COMMON         0x0000000000002524        0x4 contiki-z1.a(z1-sensors.o)
                0x0000000000002524                sensors_flags
 COMMON         0x0000000000002528        0x4 contiki-z1.a(adxl345.o)
                0x0000000000002528                accm_int2_cb
                0x000000000000252a                accm_int1_cb
 COMMON         0x000000000000252c       0x56 contiki-z1.a(energest.o)
                0x000000000000252c                energest_total_time
                0x000000000000255c                energest_total_count
                0x000000000000255e                energest_current_mode
                0x000000000000256a                energest_current_time
 COMMON         0x0000000000002582        0x1 contiki-z1.a(process.o)
                0x0000000000002582                process_maxevents
 COMMON         0x0000000000002583        0x1 contiki-z1.a(serial-line.o)
                0x0000000000002583                serial_line_event_message
 COMMON         0x0000000000002584       0x3c contiki-z1.a(packetbuf.o)
                0x0000000000002584                packetbuf_addrs
                0x000000000000258c                packetbuf_attrs
 COMMON         0x00000000000025c0        0x2 contiki-z1.a(linkaddr.o)
                0x00000000000025c0                linkaddr_node_addr
 COMMON         0x00000000000025c2       0x10 contiki-z1.a(i2cmaster.o)
                0x00000000000025c2                transmit_data1
                0x00000000000025c3                rx_byte_ctr
                0x00000000000025c4                tx_buf_ptr
                0x00000000000025c6                tx_byte_ctr
                0x00000000000025c8                i
                0x00000000000025ca                receive_data
                0x00000000000025cc                rx_buf
                0x00000000000025ce                transmit_data2
                0x00000000000025d0                rx_buf_ptr
 COMMON         0x00000000000025d2        0x8 contiki-z1.a(compower.o)
                0x00000000000025d2                compower_idle_activity
                0x00000000000025da                . = ALIGN (0x2)
                0x00000000000025da                PROVIDE (__bss_end, .)
                0x00000000000012aa                PROVIDE (__bss_size, SIZEOF (.bss))

.noinit         0x00000000000025da        0x2 load address 0x000000000000a96e
                0x00000000000025da                PROVIDE (__noinit_start, .)
 *(.noinit .noinit.*)
 .noinit.crt0   0x00000000000025da        0x2 /usr/lib/gcc/msp430/4.6.3/mcpu-430x/mmpy-16/libcrt0.a(__watchdog_support.o)
                0x00000000000025da                __wdt_clear_value
                0x00000000000025dc                . = ALIGN (0x2)
                0x00000000000025dc                PROVIDE (__noinit_end, .)
                0x00000000000025dc                . = ALIGN (0x2)
                0x00000000000025dc                _end = .

.infomem        0x0000000000001000        0x0
 *(.infomem)
                0x0000000000001000                . = ALIGN (0x2)
 *(.infomem.*)

.infomemnobits  0x0000000000001000        0x0
 *(.infomemnobits)
                0x0000000000001000                . = ALIGN (0x2)
 *(.infomemnobits.*)

.infoa
 *(.infoa .infoa.*)

.infob
 *(.infob .infob.*)

.infoc
 *(.infoc .infoc.*)

.infod
 *(.infod .infod.*)

.vectors        0x000000000000ffc0       0x40
                0x000000000000ffc0                PROVIDE (__vectors_start, .)
 *(.vectors*)
 .vectors       0x000000000000ffc0       0x40 /usr/lib/gcc/msp430/4.6.3/mcpu-430x/mmpy-16/crt0ivtbl32.o
                0x000000000000ffc0                __ivtbl_32
                0x0000000000010000                _vectors_end = .

.fartext        0x0000000000010000        0x0
                0x0000000000010000                . = ALIGN (0x2)
 *(.fartext)
                0x0000000000010000                . = ALIGN (0x2)
 *(.fartext.*)
                0x0000000000010000                _efartext = .

.profiler
 *(.profiler)

.stab           0x0000000000000000    0x21a20
 *(.stab)
 .stab          0x0000000000000000     0x1ecc sdn-wise.co
 .stab          0x0000000000001ecc     0x1ec0 obj_z1/flowtable.o
                                       0x2124 (size before relaxing)
 .stab          0x0000000000003d8c      0x9c0 obj_z1/packet-buffer.o
                                        0xe94 (size before relaxing)
 .stab          0x000000000000474c      0xa5c obj_z1/address.o
                                        0xef4 (size before relaxing)
 .stab          0x00000000000051a8      0x7f8 obj_z1/neighbor-table.o
                                        0xccc (size before relaxing)
 .stab          0x00000000000059a0      0xa2c obj_z1/packet-handler.o
                                       0x1164 (size before relaxing)
 .stab          0x00000000000063cc      0x888 obj_z1/node-conf.o
                                       0x1224 (size before relaxing)
 .stab          0x0000000000006c54      0x7d4 obj_z1/packet-creator.o
                                        0xd08 (size before relaxing)
 .stab          0x0000000000007428      0xf24 obj_z1/contiki-z1-main.o
                                       0x1818 (size before relaxing)
 .stab          0x000000000000834c      0x24c contiki-z1.a(contiki-z1-plat)
                                        0x5a0 (size before relaxing)
 .stab          0x0000000000008598      0x588 contiki-z1.a(msp430.o)
                                        0x8dc (size before relaxing)
 .stab          0x0000000000008b20      0x5dc contiki-z1.a(leds.o)
                                        0x828 (size before relaxing)
 .stab          0x00000000000090fc      0x3fc contiki-z1.a(watchdog.o)
                                        0x750 (size before relaxing)
 .stab          0x00000000000094f8      0x9fc contiki-z1.a(xmem.o)
                                        0xf3c (size before relaxing)
 .stab          0x0000000000009ef4      0x288 contiki-z1.a(spi.o)
                                        0x5dc (size before relaxing)
 .stab          0x000000000000a17c     0x2904 contiki-z1.a(cc2420.o)
                                       0x3030 (size before relaxing)
 .stab          0x000000000000ca80      0x9e4 contiki-z1.a(cc2420-arch.o)
                                       0x1374 (size before relaxing)
 .stab          0x000000000000d464      0x300 contiki-z1.a(node-id.o)
                                        0x6d8 (size before relaxing)
 .stab          0x000000000000d764      0x654 contiki-z1.a(sensors.o)
                                        0xb70 (size before relaxing)
 .stab          0x000000000000ddb8      0x528 contiki-z1.a(uart0.o)
                                        0xa38 (size before relaxing)
 .stab          0x000000000000e2e0      0x234 contiki-z1.a(uart0-putchar.o)
                                        0x588 (size before relaxing)
 .stab          0x000000000000e514      0x3a8 contiki-z1.a(z1-sensors.o)
                                        0x78c (size before relaxing)
 .stab          0x000000000000e8bc      0xd2c contiki-z1.a(adxl345.o)
                                       0x135c (size before relaxing)
 .stab          0x000000000000f5e8      0x81c contiki-z1.a(tmp102.o)
                                        0xd74 (size before relaxing)
 .stab          0x000000000000fe04      0x948 contiki-z1.a(clock.o)
                                        0xc9c (size before relaxing)
 .stab          0x000000000001074c      0x3a8 contiki-z1.a(leds-arch.o)
                                        0x6fc (size before relaxing)
 .stab          0x0000000000010af4      0x3cc contiki-z1.a(rtimer-arch.o)
                                        0x720 (size before relaxing)
 .stab          0x0000000000010ec0      0x288 contiki-z1.a(autostart.o)
                                        0x534 (size before relaxing)
 .stab          0x0000000000011148      0x474 contiki-z1.a(energest.o)
                                        0x6fc (size before relaxing)
 .stab          0x00000000000115bc      0xabc contiki-z1.a(etimer.o)
                                        0xd8c (size before relaxing)
 .stab          0x0000000000012078      0x858 contiki-z1.a(ctimer.o)
                                        0xbc4 (size before relaxing)
 .stab          0x00000000000128d0      0xba0 contiki-z1.a(process.o)
                                       0x1038 (size before relaxing)
 .stab          0x0000000000013470      0x3d8 contiki-z1.a(rtimer.o)
                                        0x6c0 (size before relaxing)
 .stab          0x0000000000013848      0x354 contiki-z1.a(timer.o)
                                        0x594 (size before relaxing)
 .stab          0x0000000000013b9c      0x534 contiki-z1.a(serial-line.o)
                                        0xa50 (size before relaxing)
 .stab          0x00000000000140d0      0x7e0 contiki-z1.a(list.o)
                                        0x804 (size before relaxing)
 .stab          0x00000000000148b0      0x5c4 contiki-z1.a(memb.o)
                                        0xaf8 (size before relaxing)
 .stab          0x0000000000014e74      0x228 contiki-z1.a(random.o)
                                        0x624 (size before relaxing)
 .stab          0x000000000001509c      0x3fc contiki-z1.a(ringbuf.o)
                                        0x63c (size before relaxing)
 .stab          0x0000000000015498      0x6d8 contiki-z1.a(broadcast.o)
                                       0x1500 (size before relaxing)
 .stab          0x0000000000015b70      0xbc4 contiki-z1.a(rime.o)
                                       0x1410 (size before relaxing)
 .stab          0x0000000000016734      0x624 contiki-z1.a(unicast.o)
                                       0x129c (size before relaxing)
 .stab          0x0000000000016d58      0xa5c contiki-z1.a(queuebuf.o)
                                       0x1884 (size before relaxing)
 .stab          0x00000000000177b4      0xc60 contiki-z1.a(packetbuf.o)
                                       0x1aa0 (size before relaxing)
 .stab          0x0000000000018414      0x2c4 contiki-z1.a(linkaddr.o)
                                        0x6c0 (size before relaxing)
 .stab          0x00000000000186d8      0xcf0 contiki-z1.a(csma.o)
                                       0x1680 (size before relaxing)
 .stab          0x00000000000193c8     0x1728 contiki-z1.a(contikimac.o)
                                       0x22ec (size before relaxing)
 .stab          0x000000000001aaf0      0x81c contiki-z1.a(contikimac-fram)
                                        0xe58 (size before relaxing)
 .stab          0x000000000001b30c      0x3c0 contiki-z1.a(nullsec.o)
                                        0xcf0 (size before relaxing)
 .stab          0x000000000001b6cc      0x894 contiki-z1.a(i2cmaster.o)
                                        0xbe8 (size before relaxing)
 .stab          0x000000000001bf60      0x468 contiki-z1.a(button-sensor.o)
                                        0x7d4 (size before relaxing)
 .stab          0x000000000001c3c8      0x51c contiki-z1.a(compower.o)
                                        0xd20 (size before relaxing)
 .stab          0x000000000001c8e4      0x948 contiki-z1.a(broadcast-annou)
                                       0x15c0 (size before relaxing)
 .stab          0x000000000001d22c      0x66c contiki-z1.a(abc.o)
                                       0x1494 (size before relaxing)
 .stab          0x000000000001d898      0x6e4 contiki-z1.a(announcement.o)
                                        0x984 (size before relaxing)
 .stab          0x000000000001df7c      0x678 contiki-z1.a(channel.o)
                                       0x129c (size before relaxing)
 .stab          0x000000000001e5f4      0x594 contiki-z1.a(chameleon.o)
                                       0x123c (size before relaxing)
 .stab          0x000000000001eb88      0x648 contiki-z1.a(mac-sequence.o)
                                       0x1488 (size before relaxing)
 .stab          0x000000000001f1d0      0x6f0 contiki-z1.a(framer-802154.o)
                                        0xf30 (size before relaxing)
 .stab          0x000000000001f8c0     0x11dc contiki-z1.a(frame802154.o)
                                       0x19c8 (size before relaxing)
 .stab          0x0000000000020a9c      0x1f8 contiki-z1.a(mac.o)
                                        0x4ec (size before relaxing)
 .stab          0x0000000000020c94      0xd8c contiki-z1.a(chameleon-bitop)
                                       0x1a04 (size before relaxing)

.stabstr        0x0000000000000000    0x1beec
 *(.stabstr)
 .stabstr       0x0000000000000000    0x1beec sdn-wise.co

.stab.excl
 *(.stab.excl)

.stab.exclstr
 *(.stab.exclstr)

.stab.index
 *(.stab.index)

.stab.indexstr
 *(.stab.indexstr)

.comment
 *(.comment)

.debug
 *(.debug)

.line
 *(.line)

.debug_srcinfo
 *(.debug_srcinfo)

.debug_sfnames
 *(.debug_sfnames)

.debug_aranges  0x0000000000000000      0x17c
 *(.debug_aranges)
 .debug_aranges
                0x0000000000000000       0x14 /usr/lib/gcc/msp430/4.6.3/mcpu-430x/mmpy-16/libgcc.a(_mulsi3.o)
 .debug_aranges
                0x0000000000000014       0x14 /usr/lib/gcc/msp430/4.6.3/mcpu-430x/mmpy-16/libgcc.a(_udivmod16.o)
 .debug_aranges
                0x0000000000000028       0x14 /usr/lib/gcc/msp430/4.6.3/mcpu-430x/mmpy-16/libgcc.a(_divmod16.o)
 .debug_aranges
                0x000000000000003c       0x14 /usr/lib/gcc/msp430/4.6.3/mcpu-430x/mmpy-16/libgcc.a(_udivmod32.o)
 .debug_aranges
                0x0000000000000050       0x14 /usr/lib/gcc/msp430/4.6.3/../../../../msp430/lib/mcpu-430x/mmpy-16/libc.a(strncmp.o)
 .debug_aranges
                0x0000000000000064       0x14 /usr/lib/gcc/msp430/4.6.3/../../../../msp430/lib/mcpu-430x/mmpy-16/libc.a(memcmp.o)
 .debug_aranges
                0x0000000000000078       0x14 /usr/lib/gcc/msp430/4.6.3/../../../../msp430/lib/mcpu-430x/mmpy-16/libc.a(memcpy.o)
 .debug_aranges
                0x000000000000008c       0x14 /usr/lib/gcc/msp430/4.6.3/../../../../msp430/lib/mcpu-430x/mmpy-16/libc.a(memset.o)
 .debug_aranges
                0x00000000000000a0       0x14 /usr/lib/gcc/msp430/4.6.3/../../../../msp430/lib/mcpu-430x/mmpy-16/libc.a(printf.o)
 .debug_aranges
                0x00000000000000b4       0x14 /usr/lib/gcc/msp430/4.6.3/../../../../msp430/lib/mcpu-430x/mmpy-16/libc.a(vuprintf.o)
 .debug_aranges
                0x00000000000000c8       0x14 /usr/lib/gcc/msp430/4.6.3/../../../../msp430/lib/mcpu-430x/mmpy-16/libc.a(puts.o)
 .debug_aranges
                0x00000000000000dc       0x14 /usr/lib/gcc/msp430/4.6.3/../../../../msp430/lib/mcpu-430x/mmpy-16/libc.a(rand.o)
 .debug_aranges
                0x00000000000000f0       0x14 /usr/lib/gcc/msp430/4.6.3/mcpu-430x/mmpy-16/libgcc.a(_udivmod64.o)
 .debug_aranges
                0x0000000000000104       0x14 /usr/lib/gcc/msp430/4.6.3/mcpu-430x/mmpy-16/libcrt0.a(__watchdog_support.o)
 .debug_aranges
                0x0000000000000118       0x14 /usr/lib/gcc/msp430/4.6.3/mcpu-430x/mmpy-16/libcrt0.a(__init_stack.o)
 .debug_aranges
                0x000000000000012c       0x14 /usr/lib/gcc/msp430/4.6.3/mcpu-430x/mmpy-16/libcrt0.a(_copy_data.o)
 .debug_aranges
                0x0000000000000140       0x14 /usr/lib/gcc/msp430/4.6.3/mcpu-430x/mmpy-16/libcrt0.a(_clear_bss.o)
 .debug_aranges
                0x0000000000000154       0x14 /usr/lib/gcc/msp430/4.6.3/mcpu-430x/mmpy-16/libcrt0.a(_endless_loop__.o)
 .debug_aranges
                0x0000000000000168       0x14 /usr/lib/gcc/msp430/4.6.3/mcpu-430x/mmpy-16/libcrt0.a(_unexpected_.o)

.debug_pubnames
 *(.debug_pubnames)

.debug_info     0x0000000000000000     0x1593
 *(.debug_info)
 .debug_info    0x0000000000000000       0xf6 /usr/lib/gcc/msp430/4.6.3/mcpu-430x/mmpy-16/libgcc.a(_mulsi3.o)
 .debug_info    0x00000000000000f6       0xf6 /usr/lib/gcc/msp430/4.6.3/mcpu-430x/mmpy-16/libgcc.a(_udivmod16.o)
 .debug_info    0x00000000000001ec       0xf6 /usr/lib/gcc/msp430/4.6.3/mcpu-430x/mmpy-16/libgcc.a(_divmod16.o)
 .debug_info    0x00000000000002e2       0xf6 /usr/lib/gcc/msp430/4.6.3/mcpu-430x/mmpy-16/libgcc.a(_udivmod32.o)
 .debug_info    0x00000000000003d8       0xbb /usr/lib/gcc/msp430/4.6.3/../../../../msp430/lib/mcpu-430x/mmpy-16/libc.a(strncmp.o)
 .debug_info    0x0000000000000493       0xe8 /usr/lib/gcc/msp430/4.6.3/../../../../msp430/lib/mcpu-430x/mmpy-16/libc.a(memcmp.o)
 .debug_info    0x000000000000057b      0x111 /usr/lib/gcc/msp430/4.6.3/../../../../msp430/lib/mcpu-430x/mmpy-16/libc.a(memcpy.o)
 .debug_info    0x000000000000068c       0xfe /usr/lib/gcc/msp430/4.6.3/../../../../msp430/lib/mcpu-430x/mmpy-16/libc.a(memset.o)
 .debug_info    0x000000000000078a      0x105 /usr/lib/gcc/msp430/4.6.3/../../../../msp430/lib/mcpu-430x/mmpy-16/libc.a(printf.o)
 .debug_info    0x000000000000088f      0x565 /usr/lib/gcc/msp430/4.6.3/../../../../msp430/lib/mcpu-430x/mmpy-16/libc.a(vuprintf.o)
 .debug_info    0x0000000000000df4       0x96 /usr/lib/gcc/msp430/4.6.3/../../../../msp430/lib/mcpu-430x/mmpy-16/libc.a(puts.o)
 .debug_info    0x0000000000000e8a      0x13f /usr/lib/gcc/msp430/4.6.3/../../../../msp430/lib/mcpu-430x/mmpy-16/libc.a(rand.o)
 .debug_info    0x0000000000000fc9       0xf6 /usr/lib/gcc/msp430/4.6.3/mcpu-430x/mmpy-16/libgcc.a(_udivmod64.o)
 .debug_info    0x00000000000010bf       0xce /usr/lib/gcc/msp430/4.6.3/mcpu-430x/mmpy-16/libcrt0.a(__watchdog_support.o)
 .debug_info    0x000000000000118d       0xce /usr/lib/gcc/msp430/4.6.3/mcpu-430x/mmpy-16/libcrt0.a(__init_stack.o)
 .debug_info    0x000000000000125b       0xce /usr/lib/gcc/msp430/4.6.3/mcpu-430x/mmpy-16/libcrt0.a(_copy_data.o)
 .debug_info    0x0000000000001329       0xce /usr/lib/gcc/msp430/4.6.3/mcpu-430x/mmpy-16/libcrt0.a(_clear_bss.o)
 .debug_info    0x00000000000013f7       0xce /usr/lib/gcc/msp430/4.6.3/mcpu-430x/mmpy-16/libcrt0.a(_endless_loop__.o)
 .debug_info    0x00000000000014c5       0xce /usr/lib/gcc/msp430/4.6.3/mcpu-430x/mmpy-16/libcrt0.a(_unexpected_.o)
 *(.gnu.linkonce.wi.*)

.debug_abbrev   0x0000000000000000      0x744
 *(.debug_abbrev)
 .debug_abbrev  0x0000000000000000       0x14 /usr/lib/gcc/msp430/4.6.3/mcpu-430x/mmpy-16/libgcc.a(_mulsi3.o)
 .debug_abbrev  0x0000000000000014       0x14 /usr/lib/gcc/msp430/4.6.3/mcpu-430x/mmpy-16/libgcc.a(_udivmod16.o)
 .debug_abbrev  0x0000000000000028       0x14 /usr/lib/gcc/msp430/4.6.3/mcpu-430x/mmpy-16/libgcc.a(_divmod16.o)
 .debug_abbrev  0x000000000000003c       0x14 /usr/lib/gcc/msp430/4.6.3/mcpu-430x/mmpy-16/libgcc.a(_udivmod32.o)
 .debug_abbrev  0x0000000000000050       0x7c /usr/lib/gcc/msp430/4.6.3/../../../../msp430/lib/mcpu-430x/mmpy-16/libc.a(strncmp.o)
 .debug_abbrev  0x00000000000000cc       0x9b /usr/lib/gcc/msp430/4.6.3/../../../../msp430/lib/mcpu-430x/mmpy-16/libc.a(memcmp.o)
 .debug_abbrev  0x0000000000000167       0xa6 /usr/lib/gcc/msp430/4.6.3/../../../../msp430/lib/mcpu-430x/mmpy-16/libc.a(memcpy.o)
 .debug_abbrev  0x000000000000020d       0x9c /usr/lib/gcc/msp430/4.6.3/../../../../msp430/lib/mcpu-430x/mmpy-16/libc.a(memset.o)
 .debug_abbrev  0x00000000000002a9       0xd0 /usr/lib/gcc/msp430/4.6.3/../../../../msp430/lib/mcpu-430x/mmpy-16/libc.a(printf.o)
 .debug_abbrev  0x0000000000000379      0x1ef /usr/lib/gcc/msp430/4.6.3/../../../../msp430/lib/mcpu-430x/mmpy-16/libc.a(vuprintf.o)
 .debug_abbrev  0x0000000000000568       0x60 /usr/lib/gcc/msp430/4.6.3/../../../../msp430/lib/mcpu-430x/mmpy-16/libc.a(puts.o)
 .debug_abbrev  0x00000000000005c8       0xf0 /usr/lib/gcc/msp430/4.6.3/../../../../msp430/lib/mcpu-430x/mmpy-16/libc.a(rand.o)
 .debug_abbrev  0x00000000000006b8       0x14 /usr/lib/gcc/msp430/4.6.3/mcpu-430x/mmpy-16/libgcc.a(_udivmod64.o)
 .debug_abbrev  0x00000000000006cc       0x14 /usr/lib/gcc/msp430/4.6.3/mcpu-430x/mmpy-16/libcrt0.a(__watchdog_support.o)
 .debug_abbrev  0x00000000000006e0       0x14 /usr/lib/gcc/msp430/4.6.3/mcpu-430x/mmpy-16/libcrt0.a(__init_stack.o)
 .debug_abbrev  0x00000000000006f4       0x14 /usr/lib/gcc/msp430/4.6.3/mcpu-430x/mmpy-16/libcrt0.a(_copy_data.o)
 .debug_abbrev  0x0000000000000708       0x14 /usr/lib/gcc/msp430/4.6.3/mcpu-430x/mmpy-16/libcrt0.a(_clear_bss.o)
 .debug_abbrev  0x000000000000071c       0x14 /usr/lib/gcc/msp430/4.6.3/mcpu-430x/mmpy-16/libcrt0.a(_endless_loop__.o)
 .debug_abbrev  0x0000000000000730       0x14 /usr/lib/gcc/msp430/4.6.3/mcpu-430x/mmpy-16/libcrt0.a(_unexpected_.o)

.debug_line     0x0000000000000000      0xd6a
 *(.debug_line)
 .debug_line    0x0000000000000000       0xad /usr/lib/gcc/msp430/4.6.3/mcpu-430x/mmpy-16/libgcc.a(_mulsi3.o)
 .debug_line    0x00000000000000ad       0xa7 /usr/lib/gcc/msp430/4.6.3/mcpu-430x/mmpy-16/libgcc.a(_udivmod16.o)
 .debug_line    0x0000000000000154       0xb2 /usr/lib/gcc/msp430/4.6.3/mcpu-430x/mmpy-16/libgcc.a(_divmod16.o)
 .debug_line    0x0000000000000206       0xb2 /usr/lib/gcc/msp430/4.6.3/mcpu-430x/mmpy-16/libgcc.a(_udivmod32.o)
 .debug_line    0x00000000000002b8       0x75 /usr/lib/gcc/msp430/4.6.3/../../../../msp430/lib/mcpu-430x/mmpy-16/libc.a(strncmp.o)
 .debug_line    0x000000000000032d       0x73 /usr/lib/gcc/msp430/4.6.3/../../../../msp430/lib/mcpu-430x/mmpy-16/libc.a(memcmp.o)
 .debug_line    0x00000000000003a0       0xe9 /usr/lib/gcc/msp430/4.6.3/../../../../msp430/lib/mcpu-430x/mmpy-16/libc.a(memcpy.o)
 .debug_line    0x0000000000000489       0xc8 /usr/lib/gcc/msp430/4.6.3/../../../../msp430/lib/mcpu-430x/mmpy-16/libc.a(memset.o)
 .debug_line    0x0000000000000551       0x72 /usr/lib/gcc/msp430/4.6.3/../../../../msp430/lib/mcpu-430x/mmpy-16/libc.a(printf.o)
 .debug_line    0x00000000000005c3      0x2ce /usr/lib/gcc/msp430/4.6.3/../../../../msp430/lib/mcpu-430x/mmpy-16/libc.a(vuprintf.o)
 .debug_line    0x0000000000000891       0x4d /usr/lib/gcc/msp430/4.6.3/../../../../msp430/lib/mcpu-430x/mmpy-16/libc.a(puts.o)
 .debug_line    0x00000000000008de       0x4f /usr/lib/gcc/msp430/4.6.3/../../../../msp430/lib/mcpu-430x/mmpy-16/libc.a(rand.o)
 .debug_line    0x000000000000092d       0xe0 /usr/lib/gcc/msp430/4.6.3/mcpu-430x/mmpy-16/libgcc.a(_udivmod64.o)
 .debug_line    0x0000000000000a0d       0x8f /usr/lib/gcc/msp430/4.6.3/mcpu-430x/mmpy-16/libcrt0.a(__watchdog_support.o)
 .debug_line    0x0000000000000a9c       0x8d /usr/lib/gcc/msp430/4.6.3/mcpu-430x/mmpy-16/libcrt0.a(__init_stack.o)
 .debug_line    0x0000000000000b29       0x93 /usr/lib/gcc/msp430/4.6.3/mcpu-430x/mmpy-16/libcrt0.a(_copy_data.o)
 .debug_line    0x0000000000000bbc       0x93 /usr/lib/gcc/msp430/4.6.3/mcpu-430x/mmpy-16/libcrt0.a(_clear_bss.o)
 .debug_line    0x0000000000000c4f       0x8e /usr/lib/gcc/msp430/4.6.3/mcpu-430x/mmpy-16/libcrt0.a(_endless_loop__.o)
 .debug_line    0x0000000000000cdd       0x8d /usr/lib/gcc/msp430/4.6.3/mcpu-430x/mmpy-16/libcrt0.a(_unexpected_.o)

.debug_frame    0x0000000000000000      0x1ac
 *(.debug_frame)
 .debug_frame   0x0000000000000000       0x24 /usr/lib/gcc/msp430/4.6.3/../../../../msp430/lib/mcpu-430x/mmpy-16/libc.a(strncmp.o)
 .debug_frame   0x0000000000000024       0x24 /usr/lib/gcc/msp430/4.6.3/../../../../msp430/lib/mcpu-430x/mmpy-16/libc.a(memcmp.o)
 .debug_frame   0x0000000000000048       0x2c /usr/lib/gcc/msp430/4.6.3/../../../../msp430/lib/mcpu-430x/mmpy-16/libc.a(memcpy.o)
 .debug_frame   0x0000000000000074       0x2a /usr/lib/gcc/msp430/4.6.3/../../../../msp430/lib/mcpu-430x/mmpy-16/libc.a(memset.o)
 .debug_frame   0x000000000000009e       0x2a /usr/lib/gcc/msp430/4.6.3/../../../../msp430/lib/mcpu-430x/mmpy-16/libc.a(printf.o)
 .debug_frame   0x00000000000000c8       0x84 /usr/lib/gcc/msp430/4.6.3/../../../../msp430/lib/mcpu-430x/mmpy-16/libc.a(vuprintf.o)
 .debug_frame   0x000000000000014c       0x24 /usr/lib/gcc/msp430/4.6.3/../../../../msp430/lib/mcpu-430x/mmpy-16/libc.a(puts.o)
 .debug_frame   0x0000000000000170       0x3c /usr/lib/gcc/msp430/4.6.3/../../../../msp430/lib/mcpu-430x/mmpy-16/libc.a(rand.o)

.debug_str      0x0000000000000000      0x3e8
 *(.debug_str)
 .debug_str     0x0000000000000000       0xd0 /usr/lib/gcc/msp430/4.6.3/../../../../msp430/lib/mcpu-430x/mmpy-16/libc.a(strncmp.o)
                                        0x109 (size before relaxing)
 .debug_str     0x00000000000000d0       0x19 /usr/lib/gcc/msp430/4.6.3/../../../../msp430/lib/mcpu-430x/mmpy-16/libc.a(memcmp.o)
                                        0x107 (size before relaxing)
 .debug_str     0x00000000000000e9       0x34 /usr/lib/gcc/msp430/4.6.3/../../../../msp430/lib/mcpu-430x/mmpy-16/libc.a(memcpy.o)
                                        0x122 (size before relaxing)
 .debug_str     0x000000000000011d       0x26 /usr/lib/gcc/msp430/4.6.3/../../../../msp430/lib/mcpu-430x/mmpy-16/libc.a(memset.o)
                                        0x120 (size before relaxing)
 .debug_str     0x0000000000000143       0x40 /usr/lib/gcc/msp430/4.6.3/../../../../msp430/lib/mcpu-430x/mmpy-16/libc.a(printf.o)
                                        0x136 (size before relaxing)
 .debug_str     0x0000000000000183      0x221 /usr/lib/gcc/msp430/4.6.3/../../../../msp430/lib/mcpu-430x/mmpy-16/libc.a(vuprintf.o)
                                        0x381 (size before relaxing)
 .debug_str     0x00000000000003a4       0x15 /usr/lib/gcc/msp430/4.6.3/../../../../msp430/lib/mcpu-430x/mmpy-16/libc.a(puts.o)
                                         0xfc (size before relaxing)
 .debug_str     0x00000000000003b9       0x2f /usr/lib/gcc/msp430/4.6.3/../../../../msp430/lib/mcpu-430x/mmpy-16/libc.a(rand.o)
                                        0x11b (size before relaxing)

.debug_loc      0x0000000000000000      0xa34
 *(.debug_loc)
 .debug_loc     0x0000000000000000       0x38 /usr/lib/gcc/msp430/4.6.3/../../../../msp430/lib/mcpu-430x/mmpy-16/libc.a(strncmp.o)
 .debug_loc     0x0000000000000038       0x5e /usr/lib/gcc/msp430/4.6.3/../../../../msp430/lib/mcpu-430x/mmpy-16/libc.a(memcmp.o)
 .debug_loc     0x0000000000000096      0x1b7 /usr/lib/gcc/msp430/4.6.3/../../../../msp430/lib/mcpu-430x/mmpy-16/libc.a(memcpy.o)
 .debug_loc     0x000000000000024d       0xc3 /usr/lib/gcc/msp430/4.6.3/../../../../msp430/lib/mcpu-430x/mmpy-16/libc.a(memset.o)
 .debug_loc     0x0000000000000310       0x38 /usr/lib/gcc/msp430/4.6.3/../../../../msp430/lib/mcpu-430x/mmpy-16/libc.a(printf.o)
 .debug_loc     0x0000000000000348      0x697 /usr/lib/gcc/msp430/4.6.3/../../../../msp430/lib/mcpu-430x/mmpy-16/libc.a(vuprintf.o)
 .debug_loc     0x00000000000009df       0x26 /usr/lib/gcc/msp430/4.6.3/../../../../msp430/lib/mcpu-430x/mmpy-16/libc.a(puts.o)
 .debug_loc     0x0000000000000a05       0x2f /usr/lib/gcc/msp430/4.6.3/../../../../msp430/lib/mcpu-430x/mmpy-16/libc.a(rand.o)

.debug_macinfo
 *(.debug_macinfo)

.debug_pubtypes
 *(.debug_pubtypes)

.debug_ranges   0x0000000000000000       0x18
 *(.debug_ranges)
 .debug_ranges  0x0000000000000000       0x18 /usr/lib/gcc/msp430/4.6.3/../../../../msp430/lib/mcpu-430x/mmpy-16/libc.a(vuprintf.o)
                0x0000000000003100                PROVIDE (__stack, (ORIGIN (ram) + 0x2000))
                0x000000000000a73e                PROVIDE (__data_start_rom, _etext)
                0x000000000000a96e                PROVIDE (__data_end_rom, (_etext + SIZEOF (.data)))
OUTPUT(sdn-wise.z1 elf32-msp430)
