Archive member included because of file (symbol)

contiki-z1.a(contiki-z1-plat)
                              obj_z1/contiki-z1-main.o (init_platform)
contiki-z1.a(msp430.o)        obj_z1/contiki-z1-main.o (splhigh_)
contiki-z1.a(leds.o)          sdn-wise.co (leds_init)
contiki-z1.a(watchdog.o)      obj_z1/contiki-z1-main.o (watchdog_start)
contiki-z1.a(xmem.o)          obj_z1/contiki-z1-main.o (xmem_init)
contiki-z1.a(spi.o)           contiki-z1.a(xmem.o) (spi_init)
contiki-z1.a(cc2420.o)        obj_z1/contiki-z1-main.o (cc2420_set_pan_addr)
contiki-z1.a(cc2420-arch.o)   contiki-z1.a(cc2420.o) (cc2420_arch_init)
contiki-z1.a(node-id.o)       obj_z1/contiki-z1-main.o (node_id_restore)
contiki-z1.a(sensors.o)       contiki-z1.a(contiki-z1-plat) (sensors_process)
contiki-z1.a(uart0.o)         obj_z1/contiki-z1-main.o (uart0_active)
contiki-z1.a(uart0-putchar.o)
                              sdn-wise.co (putchar)
contiki-z1.a(z1-sensors.o)    contiki-z1.a(sensors.o) (sensors_flags)
contiki-z1.a(adxl345.o)       obj_z1/contiki-z1-main.o (adxl345)
contiki-z1.a(battery-sensor.)
                              obj_z1/packet-creator.o (battery_sensor)
contiki-z1.a(sky-sensors.o)   contiki-z1.a(battery-sensor.) (sky_sensors_status)
contiki-z1.a(tmp102.o)        contiki-z1.a(z1-sensors.o) (tmp102)
contiki-z1.a(clock.o)         obj_z1/contiki-z1-main.o (clock_init)
contiki-z1.a(leds-arch.o)     contiki-z1.a(leds.o) (leds_arch_init)
contiki-z1.a(rtimer-arch.o)   obj_z1/contiki-z1-main.o (rtimer_arch_now)
contiki-z1.a(autostart.o)     obj_z1/contiki-z1-main.o (autostart_start)
contiki-z1.a(energest.o)      obj_z1/contiki-z1-main.o (energest_init)
contiki-z1.a(etimer.o)        contiki-z1.a(clock.o) (etimer_request_poll)
contiki-z1.a(ctimer.o)        obj_z1/contiki-z1-main.o (ctimer_init)
contiki-z1.a(process.o)       contiki-z1.a(etimer.o) (process_current)
contiki-z1.a(rtimer.o)        obj_z1/contiki-z1-main.o (rtimer_init)
contiki-z1.a(timer.o)         contiki-z1.a(adxl345.o) (timer_set)
contiki-z1.a(serial-line.o)   obj_z1/contiki-z1-main.o (serial_line_input_byte)
contiki-z1.a(list.o)          obj_z1/flowtable.o (list_init)
contiki-z1.a(memb.o)          obj_z1/flowtable.o (memb_init)
contiki-z1.a(random.o)        obj_z1/contiki-z1-main.o (random_init)
contiki-z1.a(ringbuf.o)       contiki-z1.a(serial-line.o) (ringbuf_init)
contiki-z1.a(broadcast.o)     sdn-wise.co (broadcast_open)
contiki-z1.a(rime.o)          obj_z1/contiki-z1-main.o (rime_driver)
contiki-z1.a(unicast.o)       sdn-wise.co (unicast_open)
contiki-z1.a(queuebuf.o)      contiki-z1.a(rime.o) (queuebuf_init)
contiki-z1.a(packetbuf.o)     contiki-z1.a(cc2420.o) (packetbuf_set_datalen)
contiki-z1.a(linkaddr.o)      obj_z1/contiki-z1-main.o (linkaddr_copy)
contiki-z1.a(csma.o)          obj_z1/packet-handler.o (csma_driver)
contiki-z1.a(contikimac.o)    obj_z1/contiki-z1-main.o (contikimac_driver)
contiki-z1.a(contikimac-fram)
                              contiki-z1.a(contikimac.o) (contikimac_framer)
contiki-z1.a(nullsec.o)       obj_z1/contiki-z1-main.o (nullsec_driver)
contiki-z1.a(i2cmaster.o)     contiki-z1.a(adxl345.o) (i2c_receiveinit)
contiki-z1.a(button-sensor.o)
                              contiki-z1.a(z1-sensors.o) (button_sensor)
contiki-z1.a(compower.o)      contiki-z1.a(contikimac.o) (compower_accumulate)
contiki-z1.a(broadcast-annou)
                              contiki-z1.a(rime.o) (broadcast_announcement_init)
contiki-z1.a(abc.o)           contiki-z1.a(broadcast.o) (abc_open)
contiki-z1.a(announcement.o)  contiki-z1.a(rime.o) (announcement_init)
contiki-z1.a(channel.o)       contiki-z1.a(abc.o) (channel_open)
contiki-z1.a(chameleon.o)     contiki-z1.a(rime.o) (chameleon_init)
contiki-z1.a(mac-sequence.o)  contiki-z1.a(contikimac.o) (mac_sequence_is_duplicate)
contiki-z1.a(framer-802154.o)
                              contiki-z1.a(contikimac-fram) (framer_802154)
contiki-z1.a(frame802154.o)   contiki-z1.a(framer-802154.o) (frame802154_get_pan_id)
contiki-z1.a(mac.o)           contiki-z1.a(csma.o) (mac_call_sent_callback)
contiki-z1.a(chameleon-bitop)
                              contiki-z1.a(chameleon.o) (chameleon_bitopt)
/usr/lib/gcc/msp430/4.6.3/mcpu-430x/mmpy-16/libgcc.a(_mulsi3.o)
                              contiki-z1.a(csma.o) (__mulsi3)
/usr/lib/gcc/msp430/4.6.3/mcpu-430x/mmpy-16/libgcc.a(_udivmod16.o)
                              obj_z1/flowtable.o (__udivhi3)
/usr/lib/gcc/msp430/4.6.3/mcpu-430x/mmpy-16/libgcc.a(_divmod16.o)
                              contiki-z1.a(tmp102.o) (__divhi3)
/usr/lib/gcc/msp430/4.6.3/mcpu-430x/mmpy-16/libgcc.a(_udivmod32.o)
                              obj_z1/contiki-z1-main.o (__udivsi3)
/usr/lib/gcc/msp430/4.6.3/../../../../msp430/lib/mcpu-430x/mmpy-16/libc.a(strncmp.o)
                              contiki-z1.a(sensors.o) (strncmp)
/usr/lib/gcc/msp430/4.6.3/../../../../msp430/lib/mcpu-430x/mmpy-16/libc.a(memcmp.o)
                              contiki-z1.a(linkaddr.o) (memcmp)
/usr/lib/gcc/msp430/4.6.3/../../../../msp430/lib/mcpu-430x/mmpy-16/libc.a(memcpy.o)
                              obj_z1/flowtable.o (memcpy)
/usr/lib/gcc/msp430/4.6.3/../../../../msp430/lib/mcpu-430x/mmpy-16/libc.a(memset.o)
                              obj_z1/flowtable.o (memset)
/usr/lib/gcc/msp430/4.6.3/../../../../msp430/lib/mcpu-430x/mmpy-16/libc.a(printf.o)
                              sdn-wise.co (printf)
/usr/lib/gcc/msp430/4.6.3/../../../../msp430/lib/mcpu-430x/mmpy-16/libc.a(vuprintf.o)
                              /usr/lib/gcc/msp430/4.6.3/../../../../msp430/lib/mcpu-430x/mmpy-16/libc.a(printf.o) (vuprintf)
/usr/lib/gcc/msp430/4.6.3/../../../../msp430/lib/mcpu-430x/mmpy-16/libc.a(puts.o)
                              sdn-wise.co (puts)
/usr/lib/gcc/msp430/4.6.3/../../../../msp430/lib/mcpu-430x/mmpy-16/libc.a(rand.o)
                              contiki-z1.a(random.o) (rand)
/usr/lib/gcc/msp430/4.6.3/mcpu-430x/mmpy-16/libgcc.a(_udivmod64.o)
                              /usr/lib/gcc/msp430/4.6.3/../../../../msp430/lib/mcpu-430x/mmpy-16/libc.a(vuprintf.o) (__udivdi3)
/usr/lib/gcc/msp430/4.6.3/mcpu-430x/mmpy-16/libcrt0.a(_reset_vector__.o)
                              (_reset_vector__)
/usr/lib/gcc/msp430/4.6.3/mcpu-430x/mmpy-16/libcrt0.a(__watchdog_support.o)
                              /usr/lib/gcc/msp430/4.6.3/mcpu-430x/mmpy-16/libcrt0.a(_reset_vector__.o) (__watchdog_support)
/usr/lib/gcc/msp430/4.6.3/mcpu-430x/mmpy-16/libcrt0.a(__init_stack.o)
                              /usr/lib/gcc/msp430/4.6.3/mcpu-430x/mmpy-16/libcrt0.a(_reset_vector__.o) (__init_stack)
/usr/lib/gcc/msp430/4.6.3/mcpu-430x/mmpy-16/libcrt0.a(__low_level_init.o)
                              /usr/lib/gcc/msp430/4.6.3/mcpu-430x/mmpy-16/libcrt0.a(_reset_vector__.o) (__low_level_init)
/usr/lib/gcc/msp430/4.6.3/mcpu-430x/mmpy-16/libcrt0.a(_copy_data.o)
                              /usr/lib/gcc/msp430/4.6.3/mcpu-430x/mmpy-16/libcrt0.a(_reset_vector__.o) (__do_copy_data)
/usr/lib/gcc/msp430/4.6.3/mcpu-430x/mmpy-16/libcrt0.a(_clear_bss.o)
                              /usr/lib/gcc/msp430/4.6.3/mcpu-430x/mmpy-16/libcrt0.a(_reset_vector__.o) (__do_clear_bss)
/usr/lib/gcc/msp430/4.6.3/mcpu-430x/mmpy-16/libcrt0.a(__stop_progExec__.o)
                              /usr/lib/gcc/msp430/4.6.3/mcpu-430x/mmpy-16/libcrt0.a(_reset_vector__.o) (__stop_progExec__)
/usr/lib/gcc/msp430/4.6.3/mcpu-430x/mmpy-16/libcrt0.a(_endless_loop__.o)
                              /usr/lib/gcc/msp430/4.6.3/mcpu-430x/mmpy-16/libcrt0.a(_reset_vector__.o) (_endless_loop__)
/usr/lib/gcc/msp430/4.6.3/mcpu-430x/mmpy-16/libcrt0.a(_unexpected_.o)
                              /usr/lib/gcc/msp430/4.6.3/mcpu-430x/mmpy-16/crt0ivtbl32.o (_unexpected_)

Allocating common symbols
Common symbol       size              file

compower_idle_activity
                    0x8               contiki-z1.a(compower.o)
energest_total_time
                    0x30              contiki-z1.a(energest.o)
cc2420_last_rssi    0x1               contiki-z1.a(cc2420.o)
accm_int2_cb        0x2               contiki-z1.a(adxl345.o)
conf                0x14              obj_z1/node-conf.o
energest_total_count
                    0x2               contiki-z1.a(energest.o)
cc2420_sfd_start_time
                    0x2               contiki-z1.a(cc2420.o)
cc2420_time_of_departure
                    0x2               contiki-z1.a(cc2420.o)
cc2420_time_of_arrival
                    0x2               contiki-z1.a(cc2420.o)
energest_current_mode
                    0xc               contiki-z1.a(energest.o)
packetbuf_addrs     0x8               contiki-z1.a(packetbuf.o)
process_maxevents   0x1               contiki-z1.a(process.o)
transmit_data1      0x1               contiki-z1.a(i2cmaster.o)
rx_byte_ctr         0x1               contiki-z1.a(i2cmaster.o)
tx_buf_ptr          0x2               contiki-z1.a(i2cmaster.o)
tx_byte_ctr         0x1               contiki-z1.a(i2cmaster.o)
cc2420_last_correlation
                    0x1               contiki-z1.a(cc2420.o)
linkaddr_node_addr  0x2               contiki-z1.a(linkaddr.o)
accm_int1_cb        0x2               contiki-z1.a(adxl345.o)
cc2420_authority_level_of_sender
                    0x2               contiki-z1.a(cc2420.o)
i                   0x2               contiki-z1.a(i2cmaster.o)
packetbuf_attrs     0x34              contiki-z1.a(packetbuf.o)
msp430_dco_required
                    0x2               contiki-z1.a(msp430.o)
receive_data        0x1               contiki-z1.a(i2cmaster.o)
cc2420_sfd_counter  0x1               contiki-z1.a(cc2420.o)
rx_buf              0x2               contiki-z1.a(i2cmaster.o)
status_register     0x32              obj_z1/flowtable.o
node_mac            0x8               contiki-z1.a(node-id.o)
transmit_data2      0x1               contiki-z1.a(i2cmaster.o)
energest_current_time
                    0x18              contiki-z1.a(energest.o)
rx_buf_ptr          0x2               contiki-z1.a(i2cmaster.o)
sensors_flags       0x4               contiki-z1.a(z1-sensors.o)
serial_line_event_message
                    0x1               contiki-z1.a(serial-line.o)
cc2420_sfd_end_time
                    0x2               contiki-z1.a(cc2420.o)
sensors_event       0x1               contiki-z1.a(sensors.o)

Discarded input sections

 .data          0x0000000000000000        0x0 /usr/lib/gcc/msp430/4.6.3/mcpu-430x/mmpy-16/crt0ivtbl32.o
 .bss           0x0000000000000000        0x0 /usr/lib/gcc/msp430/4.6.3/mcpu-430x/mmpy-16/crt0ivtbl32.o
 .text.crt0     0x0000000000000000        0x0 /usr/lib/gcc/msp430/4.6.3/mcpu-430x/mmpy-16/crt0ivtbl32.o
 .text          0x0000000000000000        0x0 sdn-wise.co
 .text          0x0000000000000000        0x0 obj_z1/flowtable.o
 .text.get_array_from_entry
                0x0000000000000000        0x4 obj_z1/flowtable.o
 .text.test_flowtable
                0x0000000000000000       0x70 obj_z1/flowtable.o
 .text          0x0000000000000000        0x0 obj_z1/packet-buffer.o
 .text.send_request_to_controller
                0x0000000000000000       0x72 obj_z1/packet-buffer.o
 .text.send_report_to_controller
                0x0000000000000000       0xae obj_z1/packet-buffer.o
 .text.print_packet_uart
                0x0000000000000000        0x6 obj_z1/packet-buffer.o
 .text.restore_ttl
                0x0000000000000000        0x8 obj_z1/packet-buffer.o
 .text.test_packet_buffer
                0x0000000000000000       0x22 obj_z1/packet-buffer.o
 .text          0x0000000000000000        0x0 obj_z1/address.o
 .text.swap_addresses
                0x0000000000000000       0x24 obj_z1/address.o
 .text.print_address_list
                0x0000000000000000       0x32 obj_z1/address.o
 .text.purge_address_list
                0x0000000000000000       0x3e obj_z1/address.o
 .text.fill_array_with_address
                0x0000000000000000        0xc obj_z1/address.o
 .text.get_address_from_int
                0x0000000000000000       0x12 obj_z1/address.o
 .text.is_broadcast
                0x0000000000000000       0x18 obj_z1/address.o
 .text.add_accepted_address
                0x0000000000000000       0x44 obj_z1/address.o
 .text.test_address_list
                0x0000000000000000       0x56 obj_z1/address.o
 .text          0x0000000000000000        0x0 obj_z1/neighbor-table.o
 .text.purge_neighbor_table
                0x0000000000000000       0x1c obj_z1/neighbor-table.o
 .text.nearest_neighbor
                0x0000000000000000       0x32 obj_z1/neighbor-table.o
 .text.neighbor_cmp
                0x0000000000000000        0xa obj_z1/neighbor-table.o
 .text.test_neighbor_table
                0x0000000000000000       0x60 obj_z1/neighbor-table.o
 .text          0x0000000000000000        0x0 obj_z1/packet-handler.o
 .data          0x0000000000000000       0x24 obj_z1/packet-handler.o
 .bss           0x0000000000000000        0x0 obj_z1/packet-handler.o
 .text.test_handle_open_path
                0x0000000000000000       0x22 obj_z1/packet-handler.o
 .text          0x0000000000000000        0x0 obj_z1/node-conf.o
 .data          0x0000000000000000        0x0 obj_z1/node-conf.o
 .bss           0x0000000000000000        0x0 obj_z1/node-conf.o
 .rodata        0x0000000000000000       0xe4 obj_z1/node-conf.o
 .text.print_node_conf
                0x0000000000000000       0x8c obj_z1/node-conf.o
 .text          0x0000000000000000        0x0 obj_z1/packet-creator.o
 .data          0x0000000000000000       0x1c obj_z1/packet-creator.o
 .text.create_data
                0x0000000000000000       0x96 obj_z1/packet-creator.o
 .text.create_reg_proxy
                0x0000000000000000       0x4a obj_z1/packet-creator.o
 .text.create_config
                0x0000000000000000        0x4 obj_z1/packet-creator.o
 .text          0x0000000000000000        0x0 obj_z1/contiki-z1-main.o
 .data          0x0000000000000000        0x0 obj_z1/contiki-z1-main.o
 .text.uip_log  0x0000000000000000        0x6 obj_z1/contiki-z1-main.o
 .text          0x0000000000000000        0x0 contiki-z1.a(contiki-z1-plat)
 .data          0x0000000000000000        0x0 contiki-z1.a(contiki-z1-plat)
 .bss           0x0000000000000000        0x0 contiki-z1.a(contiki-z1-plat)
 .text          0x0000000000000000        0x0 contiki-z1.a(msp430.o)
 .bss           0x0000000000000000        0x0 contiki-z1.a(msp430.o)
 .text.msp430_add_lpm_req
                0x0000000000000000        0xc contiki-z1.a(msp430.o)
 .text.msp430_remove_lpm_req
                0x0000000000000000        0xc contiki-z1.a(msp430.o)
 .text          0x0000000000000000        0x0 contiki-z1.a(leds.o)
 .data          0x0000000000000000        0x0 contiki-z1.a(leds.o)
 .text.leds_get
                0x0000000000000000        0x6 contiki-z1.a(leds.o)
 .text.leds_set
                0x0000000000000000        0x6 contiki-z1.a(leds.o)
 .text.leds_blink
                0x0000000000000000       0x20 contiki-z1.a(leds.o)
 .text          0x0000000000000000        0x0 contiki-z1.a(watchdog.o)
 .data          0x0000000000000000        0x0 contiki-z1.a(watchdog.o)
 .text.watchdog_reboot
                0x0000000000000000        0x6 contiki-z1.a(watchdog.o)
 .text          0x0000000000000000        0x0 contiki-z1.a(xmem.o)
 .data          0x0000000000000000        0x0 contiki-z1.a(xmem.o)
 .bss           0x0000000000000000        0x0 contiki-z1.a(xmem.o)
 .text.write_enable
                0x0000000000000000       0x2a contiki-z1.a(xmem.o)
 .text.xmem_pwrite
                0x0000000000000000      0x134 contiki-z1.a(xmem.o)
 .rodata        0x0000000000000000       0x2c contiki-z1.a(xmem.o)
 .text.xmem_erase
                0x0000000000000000       0xb6 contiki-z1.a(xmem.o)
 .text          0x0000000000000000        0x0 contiki-z1.a(spi.o)
 .data          0x0000000000000000        0x0 contiki-z1.a(spi.o)
 .bss           0x0000000000000000        0x2 contiki-z1.a(spi.o)
 .text          0x0000000000000000        0x0 contiki-z1.a(cc2420.o)
 .text.cc2420_get_channel
                0x0000000000000000        0x6 contiki-z1.a(cc2420.o)
 .text          0x0000000000000000        0x0 contiki-z1.a(cc2420-arch.o)
 .data          0x0000000000000000        0x0 contiki-z1.a(cc2420-arch.o)
 .bss           0x0000000000000000        0x0 contiki-z1.a(cc2420-arch.o)
 .text          0x0000000000000000        0x0 contiki-z1.a(node-id.o)
 .data          0x0000000000000000        0x0 contiki-z1.a(node-id.o)
 .text.node_id_burn
                0x0000000000000000       0x4e contiki-z1.a(node-id.o)
 .text          0x0000000000000000        0x0 contiki-z1.a(sensors.o)
 .text.sensors_first
                0x0000000000000000        0x6 contiki-z1.a(sensors.o)
 .text.sensors_next
                0x0000000000000000       0x2c contiki-z1.a(sensors.o)
 .text.sensors_find
                0x0000000000000000       0x3e contiki-z1.a(sensors.o)
 .text          0x0000000000000000        0x0 contiki-z1.a(uart0.o)
 .data          0x0000000000000000        0x0 contiki-z1.a(uart0.o)
 .text          0x0000000000000000        0x0 contiki-z1.a(uart0-putchar.o)
 .data          0x0000000000000000        0x0 contiki-z1.a(uart0-putchar.o)
 .bss           0x0000000000000000        0x0 contiki-z1.a(uart0-putchar.o)
 .text          0x0000000000000000        0x0 contiki-z1.a(z1-sensors.o)
 .bss           0x0000000000000000        0x0 contiki-z1.a(z1-sensors.o)
 .text          0x0000000000000000        0x0 contiki-z1.a(adxl345.o)
 .text.accm_set_grange
                0x0000000000000000       0x30 contiki-z1.a(adxl345.o)
 .text.accm_set_irq
                0x0000000000000000       0x38 contiki-z1.a(adxl345.o)
 .text          0x0000000000000000        0x0 contiki-z1.a(battery-sensor.)
 .data          0x0000000000000000        0x0 contiki-z1.a(battery-sensor.)
 .bss           0x0000000000000000        0x0 contiki-z1.a(battery-sensor.)
 .text          0x0000000000000000        0x0 contiki-z1.a(sky-sensors.o)
 .data          0x0000000000000000        0x0 contiki-z1.a(sky-sensors.o)
 .text          0x0000000000000000        0x0 contiki-z1.a(tmp102.o)
 .data          0x0000000000000000        0x0 contiki-z1.a(tmp102.o)
 .text.tmp102_write_reg
                0x0000000000000000       0x38 contiki-z1.a(tmp102.o)
 .text.tmp102_read_temp_raw
                0x0000000000000000        0x8 contiki-z1.a(tmp102.o)
 .text.tmp102_read_temp_simple
                0x0000000000000000        0xe contiki-z1.a(tmp102.o)
 .text          0x0000000000000000        0x0 contiki-z1.a(clock.o)
 .data          0x0000000000000000        0x0 contiki-z1.a(clock.o)
 .text.clock_set
                0x0000000000000000       0x16 contiki-z1.a(clock.o)
 .text.clock_fine_max
                0x0000000000000000        0x6 contiki-z1.a(clock.o)
 .text.clock_fine
                0x0000000000000000        0xc contiki-z1.a(clock.o)
 .text.clock_set_seconds
                0x0000000000000000       0x18 contiki-z1.a(clock.o)
 .text.clock_seconds
                0x0000000000000000       0x1a contiki-z1.a(clock.o)
 .text.clock_counter
                0x0000000000000000        0xe contiki-z1.a(clock.o)
 .text          0x0000000000000000        0x0 contiki-z1.a(leds-arch.o)
 .data          0x0000000000000000        0x0 contiki-z1.a(leds-arch.o)
 .bss           0x0000000000000000        0x0 contiki-z1.a(leds-arch.o)
 .text.leds_arch_get
                0x0000000000000000       0x30 contiki-z1.a(leds-arch.o)
 .text          0x0000000000000000        0x0 contiki-z1.a(rtimer-arch.o)
 .data          0x0000000000000000        0x0 contiki-z1.a(rtimer-arch.o)
 .bss           0x0000000000000000        0x0 contiki-z1.a(rtimer-arch.o)
 .text          0x0000000000000000        0x0 contiki-z1.a(autostart.o)
 .data          0x0000000000000000        0x0 contiki-z1.a(autostart.o)
 .bss           0x0000000000000000        0x0 contiki-z1.a(autostart.o)
 .text.autostart_exit
                0x0000000000000000       0x14 contiki-z1.a(autostart.o)
 .text          0x0000000000000000        0x0 contiki-z1.a(energest.o)
 .data          0x0000000000000000        0x0 contiki-z1.a(energest.o)
 .bss           0x0000000000000000        0x0 contiki-z1.a(energest.o)
 .text.energest_leveldevice_leveltime
                0x0000000000000000        0x6 contiki-z1.a(energest.o)
 .text          0x0000000000000000        0x0 contiki-z1.a(etimer.o)
 .text.etimer_reset_with_new_interval
                0x0000000000000000       0x1e contiki-z1.a(etimer.o)
 .text.etimer_restart
                0x0000000000000000       0x12 contiki-z1.a(etimer.o)
 .text.etimer_adjust
                0x0000000000000000       0x1a contiki-z1.a(etimer.o)
 .text.etimer_expiration_time
                0x0000000000000000       0x14 contiki-z1.a(etimer.o)
 .text.etimer_start_time
                0x0000000000000000        0x8 contiki-z1.a(etimer.o)
 .text          0x0000000000000000        0x0 contiki-z1.a(ctimer.o)
 .text.ctimer_reset
                0x0000000000000000       0x2c contiki-z1.a(ctimer.o)
 .text.ctimer_restart
                0x0000000000000000       0x2c contiki-z1.a(ctimer.o)
 .text.ctimer_expired
                0x0000000000000000       0x32 contiki-z1.a(ctimer.o)
 .text          0x0000000000000000        0x0 contiki-z1.a(process.o)
 .data          0x0000000000000000        0x0 contiki-z1.a(process.o)
 .text.process_exit
                0x0000000000000000        0xa contiki-z1.a(process.o)
 .text.process_is_running
                0x0000000000000000        0xe contiki-z1.a(process.o)
 .text          0x0000000000000000        0x0 contiki-z1.a(rtimer.o)
 .data          0x0000000000000000        0x0 contiki-z1.a(rtimer.o)
 .text          0x0000000000000000        0x0 contiki-z1.a(timer.o)
 .data          0x0000000000000000        0x0 contiki-z1.a(timer.o)
 .bss           0x0000000000000000        0x0 contiki-z1.a(timer.o)
 .text.timer_restart
                0x0000000000000000       0x14 contiki-z1.a(timer.o)
 .text.timer_remaining
                0x0000000000000000       0x24 contiki-z1.a(timer.o)
 .text          0x0000000000000000        0x0 contiki-z1.a(serial-line.o)
 .text          0x0000000000000000        0x0 contiki-z1.a(list.o)
 .data          0x0000000000000000        0x0 contiki-z1.a(list.o)
 .bss           0x0000000000000000        0x0 contiki-z1.a(list.o)
 .text.list_copy
                0x0000000000000000        0x6 contiki-z1.a(list.o)
 .text.list_chop
                0x0000000000000000       0x24 contiki-z1.a(list.o)
 .text.list_pop
                0x0000000000000000        0xe contiki-z1.a(list.o)
 .text.list_insert
                0x0000000000000000       0x16 contiki-z1.a(list.o)
 .text          0x0000000000000000        0x0 contiki-z1.a(memb.o)
 .data          0x0000000000000000        0x0 contiki-z1.a(memb.o)
 .bss           0x0000000000000000        0x0 contiki-z1.a(memb.o)
 .text.memb_numfree
                0x0000000000000000       0x26 contiki-z1.a(memb.o)
 .text          0x0000000000000000        0x0 contiki-z1.a(random.o)
 .data          0x0000000000000000        0x0 contiki-z1.a(random.o)
 .bss           0x0000000000000000        0x0 contiki-z1.a(random.o)
 .text          0x0000000000000000        0x0 contiki-z1.a(ringbuf.o)
 .data          0x0000000000000000        0x0 contiki-z1.a(ringbuf.o)
 .bss           0x0000000000000000        0x0 contiki-z1.a(ringbuf.o)
 .text.ringbuf_size
                0x0000000000000000        0x8 contiki-z1.a(ringbuf.o)
 .text.ringbuf_elements
                0x0000000000000000       0x12 contiki-z1.a(ringbuf.o)
 .text          0x0000000000000000        0x0 contiki-z1.a(broadcast.o)
 .data          0x0000000000000000        0x0 contiki-z1.a(broadcast.o)
 .bss           0x0000000000000000        0x0 contiki-z1.a(broadcast.o)
 .text          0x0000000000000000        0x0 contiki-z1.a(rime.o)
 .data          0x0000000000000000        0x0 contiki-z1.a(rime.o)
 .text.rime_sniffer_add
                0x0000000000000000        0xc contiki-z1.a(rime.o)
 .text.rime_sniffer_remove
                0x0000000000000000        0xc contiki-z1.a(rime.o)
 .text          0x0000000000000000        0x0 contiki-z1.a(unicast.o)
 .data          0x0000000000000000        0x0 contiki-z1.a(unicast.o)
 .bss           0x0000000000000000        0x0 contiki-z1.a(unicast.o)
 .text          0x0000000000000000        0x0 contiki-z1.a(queuebuf.o)
 .text.queuebuf_numfree
                0x0000000000000000        0xa contiki-z1.a(queuebuf.o)
 .text.queuebuf_dataptr
                0x0000000000000000       0x1c contiki-z1.a(queuebuf.o)
 .text.queuebuf_datalen
                0x0000000000000000        0x8 contiki-z1.a(queuebuf.o)
 .text.queuebuf_addr
                0x0000000000000000        0xe contiki-z1.a(queuebuf.o)
 .text.queuebuf_debug_print
                0x0000000000000000        0x2 contiki-z1.a(queuebuf.o)
 .text          0x0000000000000000        0x0 contiki-z1.a(packetbuf.o)
 .data          0x0000000000000000        0x0 contiki-z1.a(packetbuf.o)
 .text.packetbuf_remaininglen
                0x0000000000000000        0xe contiki-z1.a(packetbuf.o)
 .text          0x0000000000000000        0x0 contiki-z1.a(linkaddr.o)
 .data          0x0000000000000000        0x0 contiki-z1.a(linkaddr.o)
 .bss           0x0000000000000000        0x0 contiki-z1.a(linkaddr.o)
 .text          0x0000000000000000        0x0 contiki-z1.a(csma.o)
 .text          0x0000000000000000        0x0 contiki-z1.a(contikimac.o)
 .data          0x0000000000000000        0x0 contiki-z1.a(contikimac.o)
 .text.contikimac_debug_print
                0x0000000000000000        0x4 contiki-z1.a(contikimac.o)
 .text          0x0000000000000000        0x0 contiki-z1.a(contikimac-fram)
 .data          0x0000000000000000        0x0 contiki-z1.a(contikimac-fram)
 .bss           0x0000000000000000        0x0 contiki-z1.a(contikimac-fram)
 .text          0x0000000000000000        0x0 contiki-z1.a(nullsec.o)
 .data          0x0000000000000000        0x0 contiki-z1.a(nullsec.o)
 .bss           0x0000000000000000        0x0 contiki-z1.a(nullsec.o)
 .text          0x0000000000000000        0x0 contiki-z1.a(i2cmaster.o)
 .text.i2c_setrate
                0x0000000000000000        0x6 contiki-z1.a(i2cmaster.o)
 .text.i2c_disable
                0x0000000000000000       0x1a contiki-z1.a(i2cmaster.o)
 .text          0x0000000000000000        0x0 contiki-z1.a(button-sensor.o)
 .data          0x0000000000000000        0x0 contiki-z1.a(button-sensor.o)
 .text          0x0000000000000000        0x0 contiki-z1.a(compower.o)
 .data          0x0000000000000000        0x0 contiki-z1.a(compower.o)
 .text.compower_init
                0x0000000000000000        0xa contiki-z1.a(compower.o)
 .text.compower_accumulate_attrs
                0x0000000000000000       0x20 contiki-z1.a(compower.o)
 .text          0x0000000000000000        0x0 contiki-z1.a(broadcast-annou)
 .data          0x0000000000000000        0x0 contiki-z1.a(broadcast-annou)
 .text.broadcast_announcement_stop
                0x0000000000000000       0x22 contiki-z1.a(broadcast-annou)
 .text.broadcast_announcement_beacon_interval
                0x0000000000000000        0xa contiki-z1.a(broadcast-annou)
 .text          0x0000000000000000        0x0 contiki-z1.a(abc.o)
 .data          0x0000000000000000        0x0 contiki-z1.a(abc.o)
 .bss           0x0000000000000000        0x0 contiki-z1.a(abc.o)
 .text          0x0000000000000000        0x0 contiki-z1.a(announcement.o)
 .data          0x0000000000000000        0x0 contiki-z1.a(announcement.o)
 .text.announcement_register
                0x0000000000000000       0x3a contiki-z1.a(announcement.o)
 .text.announcement_remove
                0x0000000000000000        0xc contiki-z1.a(announcement.o)
 .text.announcement_remove_value
                0x0000000000000000       0x22 contiki-z1.a(announcement.o)
 .text.announcement_set_value
                0x0000000000000000       0x28 contiki-z1.a(announcement.o)
 .text.announcement_bump
                0x0000000000000000       0x22 contiki-z1.a(announcement.o)
 .text.announcement_listen
                0x0000000000000000        0xc contiki-z1.a(announcement.o)
 .text.announcement_register_listen_callback
                0x0000000000000000        0x6 contiki-z1.a(announcement.o)
 .text          0x0000000000000000        0x0 contiki-z1.a(channel.o)
 .data          0x0000000000000000        0x0 contiki-z1.a(channel.o)
 .text          0x0000000000000000        0x0 contiki-z1.a(chameleon.o)
 .data          0x0000000000000000        0x0 contiki-z1.a(chameleon.o)
 .bss           0x0000000000000000        0x0 contiki-z1.a(chameleon.o)
 .text          0x0000000000000000        0x0 contiki-z1.a(mac-sequence.o)
 .data          0x0000000000000000        0x0 contiki-z1.a(mac-sequence.o)
 .text          0x0000000000000000        0x0 contiki-z1.a(framer-802154.o)
 .data          0x0000000000000000        0x0 contiki-z1.a(framer-802154.o)
 .text          0x0000000000000000        0x0 contiki-z1.a(frame802154.o)
 .bss           0x0000000000000000        0x0 contiki-z1.a(frame802154.o)
 .text.frame802154_set_pan_id
                0x0000000000000000        0x6 contiki-z1.a(frame802154.o)
 .text.frame802154_check_dest_panid
                0x0000000000000000       0x3c contiki-z1.a(frame802154.o)
 .text.frame802154_extract_linkaddr
                0x0000000000000000       0x8c contiki-z1.a(frame802154.o)
 .text          0x0000000000000000        0x0 contiki-z1.a(mac.o)
 .data          0x0000000000000000        0x0 contiki-z1.a(mac.o)
 .bss           0x0000000000000000        0x0 contiki-z1.a(mac.o)
 .text          0x0000000000000000        0x0 contiki-z1.a(chameleon-bitop)
 .data          0x0000000000000000        0x0 contiki-z1.a(chameleon-bitop)
 .bss           0x0000000000000000        0x0 contiki-z1.a(chameleon-bitop)
 .text          0x0000000000000000        0x0 /usr/lib/gcc/msp430/4.6.3/mcpu-430x/mmpy-16/libgcc.a(_mulsi3.o)
 .data          0x0000000000000000        0x0 /usr/lib/gcc/msp430/4.6.3/mcpu-430x/mmpy-16/libgcc.a(_mulsi3.o)
 .bss           0x0000000000000000        0x0 /usr/lib/gcc/msp430/4.6.3/mcpu-430x/mmpy-16/libgcc.a(_mulsi3.o)
 .text          0x0000000000000000        0x0 /usr/lib/gcc/msp430/4.6.3/mcpu-430x/mmpy-16/libgcc.a(_udivmod16.o)
 .data          0x0000000000000000        0x0 /usr/lib/gcc/msp430/4.6.3/mcpu-430x/mmpy-16/libgcc.a(_udivmod16.o)
 .bss           0x0000000000000000        0x0 /usr/lib/gcc/msp430/4.6.3/mcpu-430x/mmpy-16/libgcc.a(_udivmod16.o)
 .text          0x0000000000000000        0x0 /usr/lib/gcc/msp430/4.6.3/mcpu-430x/mmpy-16/libgcc.a(_divmod16.o)
 .data          0x0000000000000000        0x0 /usr/lib/gcc/msp430/4.6.3/mcpu-430x/mmpy-16/libgcc.a(_divmod16.o)
 .bss           0x0000000000000000        0x0 /usr/lib/gcc/msp430/4.6.3/mcpu-430x/mmpy-16/libgcc.a(_divmod16.o)
 .text          0x0000000000000000        0x0 /usr/lib/gcc/msp430/4.6.3/mcpu-430x/mmpy-16/libgcc.a(_udivmod32.o)
 .data          0x0000000000000000        0x0 /usr/lib/gcc/msp430/4.6.3/mcpu-430x/mmpy-16/libgcc.a(_udivmod32.o)
 .bss           0x0000000000000000        0x0 /usr/lib/gcc/msp430/4.6.3/mcpu-430x/mmpy-16/libgcc.a(_udivmod32.o)
 .text          0x0000000000000000       0x28 /usr/lib/gcc/msp430/4.6.3/../../../../msp430/lib/mcpu-430x/mmpy-16/libc.a(strncmp.o)
 .data          0x0000000000000000        0x0 /usr/lib/gcc/msp430/4.6.3/../../../../msp430/lib/mcpu-430x/mmpy-16/libc.a(strncmp.o)
 .bss           0x0000000000000000        0x0 /usr/lib/gcc/msp430/4.6.3/../../../../msp430/lib/mcpu-430x/mmpy-16/libc.a(strncmp.o)
 .data          0x0000000000000000        0x0 /usr/lib/gcc/msp430/4.6.3/../../../../msp430/lib/mcpu-430x/mmpy-16/libc.a(memcmp.o)
 .bss           0x0000000000000000        0x0 /usr/lib/gcc/msp430/4.6.3/../../../../msp430/lib/mcpu-430x/mmpy-16/libc.a(memcmp.o)
 .data          0x0000000000000000        0x0 /usr/lib/gcc/msp430/4.6.3/../../../../msp430/lib/mcpu-430x/mmpy-16/libc.a(memcpy.o)
 .bss           0x0000000000000000        0x0 /usr/lib/gcc/msp430/4.6.3/../../../../msp430/lib/mcpu-430x/mmpy-16/libc.a(memcpy.o)
 .data          0x0000000000000000        0x0 /usr/lib/gcc/msp430/4.6.3/../../../../msp430/lib/mcpu-430x/mmpy-16/libc.a(memset.o)
 .bss           0x0000000000000000        0x0 /usr/lib/gcc/msp430/4.6.3/../../../../msp430/lib/mcpu-430x/mmpy-16/libc.a(memset.o)
 .data          0x0000000000000000        0x0 /usr/lib/gcc/msp430/4.6.3/../../../../msp430/lib/mcpu-430x/mmpy-16/libc.a(printf.o)
 .bss           0x0000000000000000        0x0 /usr/lib/gcc/msp430/4.6.3/../../../../msp430/lib/mcpu-430x/mmpy-16/libc.a(printf.o)
 .data          0x0000000000000000        0x0 /usr/lib/gcc/msp430/4.6.3/../../../../msp430/lib/mcpu-430x/mmpy-16/libc.a(vuprintf.o)
 .bss           0x0000000000000000        0x0 /usr/lib/gcc/msp430/4.6.3/../../../../msp430/lib/mcpu-430x/mmpy-16/libc.a(vuprintf.o)
 .data          0x0000000000000000        0x0 /usr/lib/gcc/msp430/4.6.3/../../../../msp430/lib/mcpu-430x/mmpy-16/libc.a(puts.o)
 .bss           0x0000000000000000        0x0 /usr/lib/gcc/msp430/4.6.3/../../../../msp430/lib/mcpu-430x/mmpy-16/libc.a(puts.o)
 .bss           0x0000000000000000        0x0 /usr/lib/gcc/msp430/4.6.3/../../../../msp430/lib/mcpu-430x/mmpy-16/libc.a(rand.o)
 .text          0x0000000000000000        0x0 /usr/lib/gcc/msp430/4.6.3/mcpu-430x/mmpy-16/libgcc.a(_udivmod64.o)
 .data          0x0000000000000000        0x0 /usr/lib/gcc/msp430/4.6.3/mcpu-430x/mmpy-16/libgcc.a(_udivmod64.o)
 .bss           0x0000000000000000        0x0 /usr/lib/gcc/msp430/4.6.3/mcpu-430x/mmpy-16/libgcc.a(_udivmod64.o)
 .text          0x0000000000000000        0x0 /usr/lib/gcc/msp430/4.6.3/mcpu-430x/mmpy-16/libcrt0.a(_reset_vector__.o)
 .data          0x0000000000000000        0x0 /usr/lib/gcc/msp430/4.6.3/mcpu-430x/mmpy-16/libcrt0.a(_reset_vector__.o)
 .bss           0x0000000000000000        0x0 /usr/lib/gcc/msp430/4.6.3/mcpu-430x/mmpy-16/libcrt0.a(_reset_vector__.o)
 .text          0x0000000000000000        0x0 /usr/lib/gcc/msp430/4.6.3/mcpu-430x/mmpy-16/libcrt0.a(__watchdog_support.o)
 .data          0x0000000000000000        0x0 /usr/lib/gcc/msp430/4.6.3/mcpu-430x/mmpy-16/libcrt0.a(__watchdog_support.o)
 .bss           0x0000000000000000        0x0 /usr/lib/gcc/msp430/4.6.3/mcpu-430x/mmpy-16/libcrt0.a(__watchdog_support.o)
 .text          0x0000000000000000        0x0 /usr/lib/gcc/msp430/4.6.3/mcpu-430x/mmpy-16/libcrt0.a(__init_stack.o)
 .data          0x0000000000000000        0x0 /usr/lib/gcc/msp430/4.6.3/mcpu-430x/mmpy-16/libcrt0.a(__init_stack.o)
 .bss           0x0000000000000000        0x0 /usr/lib/gcc/msp430/4.6.3/mcpu-430x/mmpy-16/libcrt0.a(__init_stack.o)
 .text          0x0000000000000000        0x0 /usr/lib/gcc/msp430/4.6.3/mcpu-430x/mmpy-16/libcrt0.a(__low_level_init.o)
 .data          0x0000000000000000        0x0 /usr/lib/gcc/msp430/4.6.3/mcpu-430x/mmpy-16/libcrt0.a(__low_level_init.o)
 .bss           0x0000000000000000        0x0 /usr/lib/gcc/msp430/4.6.3/mcpu-430x/mmpy-16/libcrt0.a(__low_level_init.o)
 .text          0x0000000000000000        0x0 /usr/lib/gcc/msp430/4.6.3/mcpu-430x/mmpy-16/libcrt0.a(_copy_data.o)
 .data          0x0000000000000000        0x0 /usr/lib/gcc/msp430/4.6.3/mcpu-430x/mmpy-16/libcrt0.a(_copy_data.o)
 .bss           0x0000000000000000        0x0 /usr/lib/gcc/msp430/4.6.3/mcpu-430x/mmpy-16/libcrt0.a(_copy_data.o)
 .text          0x0000000000000000        0x0 /usr/lib/gcc/msp430/4.6.3/mcpu-430x/mmpy-16/libcrt0.a(_clear_bss.o)
 .data          0x0000000000000000        0x0 /usr/lib/gcc/msp430/4.6.3/mcpu-430x/mmpy-16/libcrt0.a(_clear_bss.o)
 .bss           0x0000000000000000        0x0 /usr/lib/gcc/msp430/4.6.3/mcpu-430x/mmpy-16/libcrt0.a(_clear_bss.o)
 .text          0x0000000000000000        0x0 /usr/lib/gcc/msp430/4.6.3/mcpu-430x/mmpy-16/libcrt0.a(__stop_progExec__.o)
 .data          0x0000000000000000        0x0 /usr/lib/gcc/msp430/4.6.3/mcpu-430x/mmpy-16/libcrt0.a(__stop_progExec__.o)
 .bss           0x0000000000000000        0x0 /usr/lib/gcc/msp430/4.6.3/mcpu-430x/mmpy-16/libcrt0.a(__stop_progExec__.o)
 .text          0x0000000000000000        0x0 /usr/lib/gcc/msp430/4.6.3/mcpu-430x/mmpy-16/libcrt0.a(_endless_loop__.o)
 .data          0x0000000000000000        0x0 /usr/lib/gcc/msp430/4.6.3/mcpu-430x/mmpy-16/libcrt0.a(_endless_loop__.o)
 .bss           0x0000000000000000        0x0 /usr/lib/gcc/msp430/4.6.3/mcpu-430x/mmpy-16/libcrt0.a(_endless_loop__.o)
 .text          0x0000000000000000        0x0 /usr/lib/gcc/msp430/4.6.3/mcpu-430x/mmpy-16/libcrt0.a(_unexpected_.o)
 .data          0x0000000000000000        0x0 /usr/lib/gcc/msp430/4.6.3/mcpu-430x/mmpy-16/libcrt0.a(_unexpected_.o)
 .bss           0x0000000000000000        0x0 /usr/lib/gcc/msp430/4.6.3/mcpu-430x/mmpy-16/libcrt0.a(_unexpected_.o)

Memory Configuration

Name             Origin             Length             Attributes
sfr              0x0000000000000000 0x0000000000000010
peripheral_8bit  0x0000000000000010 0x00000000000000f0
peripheral_16bit 0x0000000000000100 0x0000000000000100
ram_mirror       0x0000000000000200 0x0000000000000800 xw
infomem          0x0000000000001000 0x0000000000000100
infod            0x0000000000001000 0x0000000000000040
infoc            0x0000000000001040 0x0000000000000040
infob            0x0000000000001080 0x0000000000000040
infoa            0x00000000000010c0 0x0000000000000040
ram              0x0000000000001100 0x0000000000002000 xw
rom              0x0000000000003100 0x000000000000cebe xr
vectors          0x000000000000ffc0 0x0000000000000040
far_rom          0x0000000000010000 0x000000000000a000
bsl              0x0000000000000000 0x0000000000000000
ram2             0x0000000000000000 0x0000000000000000 xw
usbram           0x0000000000000000 0x0000000000000000 xw
*default*        0x0000000000000000 0xffffffffffffffff

Linker script and memory map

LOAD /usr/lib/gcc/msp430/4.6.3/mcpu-430x/mmpy-16/crt0ivtbl32.o
                0x0000000000000041                __P1SEL2 = 0x41
                0x0000000000000045                __P5SEL2 = 0x45
LOAD sdn-wise.co
LOAD obj_z1/flowtable.o
LOAD obj_z1/packet-buffer.o
LOAD obj_z1/address.o
LOAD obj_z1/neighbor-table.o
LOAD obj_z1/packet-handler.o
LOAD obj_z1/node-conf.o
LOAD obj_z1/packet-creator.o
LOAD obj_z1/contiki-z1-main.o
LOAD contiki-z1.a
LOAD /usr/lib/gcc/msp430/4.6.3/mcpu-430x/mmpy-16/libgcc.a
LOAD /usr/lib/gcc/msp430/4.6.3/../../../../msp430/lib/mcpu-430x/mmpy-16/libc.a
LOAD /usr/lib/gcc/msp430/4.6.3/mcpu-430x/mmpy-16/libgcc.a
LOAD /usr/lib/gcc/msp430/4.6.3/mcpu-430x/mmpy-16/libcrt0.a
                0x0000000000000040                PROVIDE (__info_segment_size, 0x40)
                0x0000000000001000                PROVIDE (__infod, 0x1000)
                0x0000000000001040                PROVIDE (__infoc, 0x1040)
                0x0000000000001080                PROVIDE (__infob, 0x1080)
                0x00000000000010c0                PROVIDE (__infoa, 0x10c0)
                0x0000000000000000                __IE1 = 0x0
                0x0000000000000002                __IFG1 = 0x2
                0x0000000000000001                __IE2 = 0x1
                0x0000000000000003                __IFG2 = 0x3
                0x0000000000000006                __UC1IE = 0x6
                0x0000000000000007                __UC1IFG = 0x7
                0x00000000000001a0                __ADC12CTL0 = 0x1a0
                0x00000000000001a2                __ADC12CTL1 = 0x1a2
                0x00000000000001a4                __ADC12IFG = 0x1a4
                0x00000000000001a6                __ADC12IE = 0x1a6
                0x00000000000001a8                __ADC12IV = 0x1a8
                0x0000000000000140                __ADC12MEM0 = 0x140
                0x0000000000000142                __ADC12MEM1 = 0x142
                0x0000000000000144                __ADC12MEM2 = 0x144
                0x0000000000000146                __ADC12MEM3 = 0x146
                0x0000000000000148                __ADC12MEM4 = 0x148
                0x000000000000014a                __ADC12MEM5 = 0x14a
                0x000000000000014c                __ADC12MEM6 = 0x14c
                0x000000000000014e                __ADC12MEM7 = 0x14e
                0x0000000000000150                __ADC12MEM8 = 0x150
                0x0000000000000152                __ADC12MEM9 = 0x152
                0x0000000000000154                __ADC12MEM10 = 0x154
                0x0000000000000156                __ADC12MEM11 = 0x156
                0x0000000000000158                __ADC12MEM12 = 0x158
                0x000000000000015a                __ADC12MEM13 = 0x15a
                0x000000000000015c                __ADC12MEM14 = 0x15c
                0x000000000000015e                __ADC12MEM15 = 0x15e
                0x0000000000000080                __ADC12MCTL0 = 0x80
                0x0000000000000081                __ADC12MCTL1 = 0x81
                0x0000000000000082                __ADC12MCTL2 = 0x82
                0x0000000000000083                __ADC12MCTL3 = 0x83
                0x0000000000000084                __ADC12MCTL4 = 0x84
                0x0000000000000085                __ADC12MCTL5 = 0x85
                0x0000000000000086                __ADC12MCTL6 = 0x86
                0x0000000000000087                __ADC12MCTL7 = 0x87
                0x0000000000000088                __ADC12MCTL8 = 0x88
                0x0000000000000089                __ADC12MCTL9 = 0x89
                0x000000000000008a                __ADC12MCTL10 = 0x8a
                0x000000000000008b                __ADC12MCTL11 = 0x8b
                0x000000000000008c                __ADC12MCTL12 = 0x8c
                0x000000000000008d                __ADC12MCTL13 = 0x8d
                0x000000000000008e                __ADC12MCTL14 = 0x8e
                0x000000000000008f                __ADC12MCTL15 = 0x8f
                0x0000000000000056                __DCOCTL = 0x56
                0x0000000000000057                __BCSCTL1 = 0x57
                0x0000000000000058                __BCSCTL2 = 0x58
                0x0000000000000053                __BCSCTL3 = 0x53
                0x0000000000000059                __CACTL1 = 0x59
                0x000000000000005a                __CACTL2 = 0x5a
                0x000000000000005b                __CAPD = 0x5b
                0x00000000000001c0                __DAC12_0CTL = 0x1c0
                0x00000000000001c2                __DAC12_1CTL = 0x1c2
                0x00000000000001c8                __DAC12_0DAT = 0x1c8
                0x00000000000001ca                __DAC12_1DAT = 0x1ca
                0x0000000000000122                __DMACTL0 = 0x122
                0x0000000000000124                __DMACTL1 = 0x124
                0x0000000000000126                __DMAIV = 0x126
                0x00000000000001d0                __DMA0CTL = 0x1d0
                0x00000000000001dc                __DMA1CTL = 0x1dc
                0x00000000000001e8                __DMA2CTL = 0x1e8
                0x00000000000001d2                __DMA0SA = 0x1d2
                0x00000000000001d2                __DMA0SAL = 0x1d2
                0x00000000000001d6                __DMA0DA = 0x1d6
                0x00000000000001d6                __DMA0DAL = 0x1d6
                0x00000000000001da                __DMA0SZ = 0x1da
                0x00000000000001de                __DMA1SA = 0x1de
                0x00000000000001de                __DMA1SAL = 0x1de
                0x00000000000001e2                __DMA1DA = 0x1e2
                0x00000000000001e2                __DMA1DAL = 0x1e2
                0x00000000000001e6                __DMA1SZ = 0x1e6
                0x00000000000001ea                __DMA2SA = 0x1ea
                0x00000000000001ea                __DMA2SAL = 0x1ea
                0x00000000000001ee                __DMA2DA = 0x1ee
                0x00000000000001ee                __DMA2DAL = 0x1ee
                0x00000000000001f2                __DMA2SZ = 0x1f2
                0x0000000000000128                __FCTL1 = 0x128
                0x000000000000012a                __FCTL2 = 0x12a
                0x000000000000012c                __FCTL3 = 0x12c
                0x00000000000001be                __FCTL4 = 0x1be
                0x0000000000000130                __MPY = 0x130
                0x0000000000000132                __MPYS = 0x132
                0x0000000000000134                __MAC = 0x134
                0x0000000000000136                __MACS = 0x136
                0x0000000000000138                __OP2 = 0x138
                0x000000000000013a                __RESLO = 0x13a
                0x000000000000013c                __RESHI = 0x13c
                0x000000000000013e                __SUMEXT = 0x13e
                0x0000000000000020                __P1IN = 0x20
                0x0000000000000021                __P1OUT = 0x21
                0x0000000000000022                __P1DIR = 0x22
                0x0000000000000023                __P1IFG = 0x23
                0x0000000000000024                __P1IES = 0x24
                0x0000000000000025                __P1IE = 0x25
                0x0000000000000026                __P1SEL = 0x26
                0x0000000000000027                __P1REN = 0x27
                0x0000000000000028                __P2IN = 0x28
                0x0000000000000029                __P2OUT = 0x29
                0x000000000000002a                __P2DIR = 0x2a
                0x000000000000002b                __P2IFG = 0x2b
                0x000000000000002c                __P2IES = 0x2c
                0x000000000000002d                __P2IE = 0x2d
                0x000000000000002e                __P2SEL = 0x2e
                0x000000000000002f                __P2REN = 0x2f
                0x0000000000000018                __P3IN = 0x18
                0x0000000000000019                __P3OUT = 0x19
                0x000000000000001a                __P3DIR = 0x1a
                0x000000000000001b                __P3SEL = 0x1b
                0x0000000000000010                __P3REN = 0x10
                0x000000000000001c                __P4IN = 0x1c
                0x000000000000001d                __P4OUT = 0x1d
                0x000000000000001e                __P4DIR = 0x1e
                0x000000000000001f                __P4SEL = 0x1f
                0x0000000000000011                __P4REN = 0x11
                0x0000000000000030                __P5IN = 0x30
                0x0000000000000031                __P5OUT = 0x31
                0x0000000000000032                __P5DIR = 0x32
                0x0000000000000033                __P5SEL = 0x33
                0x0000000000000012                __P5REN = 0x12
                0x0000000000000034                __P6IN = 0x34
                0x0000000000000035                __P6OUT = 0x35
                0x0000000000000036                __P6DIR = 0x36
                0x0000000000000037                __P6SEL = 0x37
                0x0000000000000013                __P6REN = 0x13
                0x0000000000000038                __P7IN = 0x38
                0x000000000000003a                __P7OUT = 0x3a
                0x000000000000003c                __P7DIR = 0x3c
                0x000000000000003e                __P7SEL = 0x3e
                0x0000000000000014                __P7REN = 0x14
                0x0000000000000039                __P8IN = 0x39
                0x000000000000003b                __P8OUT = 0x3b
                0x000000000000003d                __P8DIR = 0x3d
                0x000000000000003f                __P8SEL = 0x3f
                0x0000000000000015                __P8REN = 0x15
                0x0000000000000038                __PAIN = 0x38
                0x000000000000003a                __PAOUT = 0x3a
                0x000000000000003c                __PADIR = 0x3c
                0x000000000000003e                __PASEL = 0x3e
                0x0000000000000014                __PAREN = 0x14
                0x0000000000000055                __SVSCTL = 0x55
                0x000000000000012e                __TAIV = 0x12e
                0x0000000000000160                __TACTL = 0x160
                0x0000000000000162                __TACCTL0 = 0x162
                0x0000000000000164                __TACCTL1 = 0x164
                0x0000000000000166                __TACCTL2 = 0x166
                0x0000000000000170                __TAR = 0x170
                0x0000000000000172                __TACCR0 = 0x172
                0x0000000000000174                __TACCR1 = 0x174
                0x0000000000000176                __TACCR2 = 0x176
                0x000000000000011e                __TBIV = 0x11e
                0x0000000000000180                __TBCTL = 0x180
                0x0000000000000182                __TBCCTL0 = 0x182
                0x0000000000000184                __TBCCTL1 = 0x184
                0x0000000000000186                __TBCCTL2 = 0x186
                0x0000000000000188                __TBCCTL3 = 0x188
                0x000000000000018a                __TBCCTL4 = 0x18a
                0x000000000000018c                __TBCCTL5 = 0x18c
                0x000000000000018e                __TBCCTL6 = 0x18e
                0x0000000000000190                __TBR = 0x190
                0x0000000000000192                __TBCCR0 = 0x192
                0x0000000000000194                __TBCCR1 = 0x194
                0x0000000000000196                __TBCCR2 = 0x196
                0x0000000000000198                __TBCCR3 = 0x198
                0x000000000000019a                __TBCCR4 = 0x19a
                0x000000000000019c                __TBCCR5 = 0x19c
                0x000000000000019e                __TBCCR6 = 0x19e
                0x0000000000000060                __UCA0CTL0 = 0x60
                0x0000000000000061                __UCA0CTL1 = 0x61
                0x0000000000000062                __UCA0BR0 = 0x62
                0x0000000000000063                __UCA0BR1 = 0x63
                0x0000000000000064                __UCA0MCTL = 0x64
                0x0000000000000065                __UCA0STAT = 0x65
                0x0000000000000066                __UCA0RXBUF = 0x66
                0x0000000000000067                __UCA0TXBUF = 0x67
                0x000000000000005d                __UCA0ABCTL = 0x5d
                0x000000000000005e                __UCA0IRTCTL = 0x5e
                0x000000000000005f                __UCA0IRRCTL = 0x5f
                0x0000000000000068                __UCB0CTL0 = 0x68
                0x0000000000000069                __UCB0CTL1 = 0x69
                0x000000000000006a                __UCB0BR0 = 0x6a
                0x000000000000006b                __UCB0BR1 = 0x6b
                0x000000000000006c                __UCB0I2CIE = 0x6c
                0x000000000000006d                __UCB0STAT = 0x6d
                0x000000000000006e                __UCB0RXBUF = 0x6e
                0x000000000000006f                __UCB0TXBUF = 0x6f
                0x0000000000000118                __UCB0I2COA = 0x118
                0x000000000000011a                __UCB0I2CSA = 0x11a
                0x00000000000000d0                __UCA1CTL0 = 0xd0
                0x00000000000000d1                __UCA1CTL1 = 0xd1
                0x00000000000000d2                __UCA1BR0 = 0xd2
                0x00000000000000d3                __UCA1BR1 = 0xd3
                0x00000000000000d4                __UCA1MCTL = 0xd4
                0x00000000000000d5                __UCA1STAT = 0xd5
                0x00000000000000d6                __UCA1RXBUF = 0xd6
                0x00000000000000d7                __UCA1TXBUF = 0xd7
                0x00000000000000cd                __UCA1ABCTL = 0xcd
                0x00000000000000ce                __UCA1IRTCTL = 0xce
                0x00000000000000cf                __UCA1IRRCTL = 0xcf
                0x00000000000000d8                __UCB1CTL0 = 0xd8
                0x00000000000000d9                __UCB1CTL1 = 0xd9
                0x00000000000000da                __UCB1BR0 = 0xda
                0x00000000000000db                __UCB1BR1 = 0xdb
                0x00000000000000dc                __UCB1I2CIE = 0xdc
                0x00000000000000dd                __UCB1STAT = 0xdd
                0x00000000000000de                __UCB1RXBUF = 0xde
                0x00000000000000df                __UCB1TXBUF = 0xdf
                0x000000000000017c                __UCB1I2COA = 0x17c
                0x000000000000017e                __UCB1I2CSA = 0x17e
                0x0000000000000120                __WDTCTL = 0x120
                0x00000000000010c0                __TLV_CHECKSUM = 0x10c0
                0x00000000000010f6                __TLV_DCO_30_TAG = 0x10f6
                0x00000000000010f7                __TLV_DCO_30_LEN = 0x10f7
                0x00000000000010da                __TLV_ADC12_1_TAG = 0x10da
                0x00000000000010db                __TLV_ADC12_1_LEN = 0x10db
                0x00000000000010f8                __CALDCO_16MHZ = 0x10f8
                0x00000000000010f9                __CALBC1_16MHZ = 0x10f9
                0x00000000000010fa                __CALDCO_12MHZ = 0x10fa
                0x00000000000010fb                __CALBC1_12MHZ = 0x10fb
                0x00000000000010fc                __CALDCO_8MHZ = 0x10fc
                0x00000000000010fd                __CALBC1_8MHZ = 0x10fd
                0x00000000000010fe                __CALDCO_1MHZ = 0x10fe
                0x00000000000010ff                __CALBC1_1MHZ = 0x10ff

.hash
 *(.hash)

.dynsym
 *(.dynsym)

.dynstr
 *(.dynstr)

.gnu.version
 *(.gnu.version)

.gnu.version_d
 *(.gnu.version_d)

.gnu.version_r
 *(.gnu.version_r)

.rel.init
 *(.rel.init)

.rela.init
 *(.rela.init)

.rel.fini
 *(.rel.fini)

.rela.fini
 *(.rela.fini)

.rel.text
 *(.rel.text .rel.text.* .rel.gnu.linkonce.t.*)

.rela.text
 *(.rela.text .rela.text.* .rela.gnu.linkonce.t.*)

.rel.rodata
 *(.rel.rodata .rel.rodata.* .rel.gnu.linkonce.r.*)

.rela.rodata
 *(.rela.rodata .rela.rodata.* .rela.gnu.linkonce.r.*)

.rel.data
 *(.rel.data .rel.data.* .rel.gnu.linkonce.d.*)

.rela.data
 *(.rela.data .rela.data.* .rela.gnu.linkonce.d.*)

.rel.bss
 *(.rel.bss .rel.bss.* .rel.gnu.linkonce.b.*)

.rela.bss
 *(.rela.bss .rela.bss.* .rela.gnu.linkonce.b.*)

.rel.ctors
 *(.rel.ctors)

.rela.ctors
 *(.rela.ctors)

.rel.dtors
 *(.rel.dtors)

.rela.dtors
 *(.rela.dtors)

.rel.got
 *(.rel.got)

.rela.got
 *(.rela.got)

.rel.plt
 *(.rel.plt)

.rela.plt
 *(.rela.plt)

.text           0x0000000000003100     0x7194
                0x0000000000003100                . = ALIGN (0x2)
 *(.init .init.*)
 *(.init0)
 .init0         0x0000000000003100        0x0 /usr/lib/gcc/msp430/4.6.3/mcpu-430x/mmpy-16/libcrt0.a(_reset_vector__.o)
                0x0000000000003100                _reset_vector__
 *(.init1)
 .init1         0x0000000000003100        0xc /usr/lib/gcc/msp430/4.6.3/mcpu-430x/mmpy-16/libcrt0.a(__watchdog_support.o)
                0x0000000000003100                __watchdog_support
 *(.init2)
 .init2         0x000000000000310c        0x4 /usr/lib/gcc/msp430/4.6.3/mcpu-430x/mmpy-16/libcrt0.a(__init_stack.o)
                0x000000000000310c                __init_stack
 *(.init3)
 .init3         0x0000000000003110        0x0 /usr/lib/gcc/msp430/4.6.3/mcpu-430x/mmpy-16/libcrt0.a(__low_level_init.o)
                0x0000000000003110                __low_level_init
 *(.init4)
 .init4         0x0000000000003110       0x18 /usr/lib/gcc/msp430/4.6.3/mcpu-430x/mmpy-16/libcrt0.a(_copy_data.o)
                0x0000000000003110                __do_copy_data
 .init4         0x0000000000003128       0x16 /usr/lib/gcc/msp430/4.6.3/mcpu-430x/mmpy-16/libcrt0.a(_clear_bss.o)
                0x0000000000003128                __do_clear_bss
 *(.init5)
 *(.init6)
 *(.init7)
 *(.init8)
 *(.init9)
 .init9         0x000000000000313e      0x310 obj_z1/contiki-z1-main.o
                0x000000000000313e                main
 *(.fini9)
 .fini9         0x000000000000344e        0x0 /usr/lib/gcc/msp430/4.6.3/mcpu-430x/mmpy-16/libcrt0.a(__stop_progExec__.o)
                0x000000000000344e                __stop_progExec__
 *(.fini8)
 *(.fini7)
 *(.fini6)
 *(.fini5)
 *(.fini4)
 *(.fini3)
 *(.fini2)
 *(.fini1)
 *(.fini0)
 .fini0         0x000000000000344e        0x6 /usr/lib/gcc/msp430/4.6.3/mcpu-430x/mmpy-16/libcrt0.a(_endless_loop__.o)
                0x000000000000344e                _endless_loop__
 *(.fini .fini.*)
                0x0000000000003454                . = ALIGN (0x2)
                0x0000000000003454                __ctors_start = .
 *(.ctors)
                0x0000000000003454                __ctors_end = .
                0x0000000000003454                __dtors_start = .
 *(.dtors)
                0x0000000000003454                __dtors_end = .
                0x0000000000003454                . = ALIGN (0x2)
 *(.text .text.* .gnu.linkonce.t.*)
 .text          0x0000000000003454        0x4 /usr/lib/gcc/msp430/4.6.3/mcpu-430x/mmpy-16/crt0ivtbl32.o
                0x0000000000003454                __isr_14
                0x0000000000003454                __isr_4
                0x0000000000003454                __isr_29
                0x0000000000003454                __isr_11
                0x0000000000003454                __isr_5
                0x0000000000003454                __isr_2
                0x0000000000003454                __isr_10
                0x0000000000003454                __isr_7
                0x0000000000003454                __isr_0
                0x0000000000003454                __isr_28
                0x0000000000003454                __isr_8
                0x0000000000003454                __isr_20
                0x0000000000003454                __isr_3
                0x0000000000003454                __isr_12
                0x0000000000003454                __isr_13
                0x0000000000003454                __isr_27
                0x0000000000003454                __isr_9
                0x0000000000003454                __isr_30
                0x0000000000003454                __isr_6
                0x0000000000003454                __isr_22
                0x0000000000003454                __isr_1
                0x0000000000003454                __isr_15
                0x0000000000003454                __isr_21
 .text.process_thread_report_timer_proc
                0x0000000000003458       0x7c sdn-wise.co
 .text.process_thread_beacon_timer_proc
                0x00000000000034d4       0x7c sdn-wise.co
 .text.process_thread_timer_proc
                0x0000000000003550       0x98 sdn-wise.co
 .text.process_thread_packet_handler_proc
                0x00000000000035e8       0x52 sdn-wise.co
 .text.process_thread_rf_b_send_proc
                0x000000000000363a       0x8c sdn-wise.co
 .text.broadcast_rx_callback
                0x00000000000036c6       0x2a sdn-wise.co
 .text.unicast_rx_callback
                0x00000000000036f0       0x2a sdn-wise.co
 .text.process_thread_rf_u_send_proc
                0x000000000000371a       0xa2 sdn-wise.co
 .text.uart_rx_callback
                0x00000000000037bc      0x418 sdn-wise.co
                0x00000000000037bc                uart_rx_callback
 .text.rf_unicast_send
                0x0000000000003bd4       0x10 sdn-wise.co
                0x0000000000003bd4                rf_unicast_send
 .text.rf_broadcast_send
                0x0000000000003be4       0x10 sdn-wise.co
                0x0000000000003be4                rf_broadcast_send
 .text.process_thread_main_proc
                0x0000000000003bf4      0x114 sdn-wise.co
 .text.get_operand
                0x0000000000003d08       0x5a obj_z1/flowtable.o
 .text.do_operation
                0x0000000000003d62       0x4a obj_z1/flowtable.o
 .text.print_window
                0x0000000000003dac       0x9e obj_z1/flowtable.o
 .text.entry_free
                0x0000000000003e4a       0xb2 obj_z1/flowtable.o
 .text.purge_flowtable
                0x0000000000003efc       0x1c obj_z1/flowtable.o
 .text.entry_allocate
                0x0000000000003f18       0x5c obj_z1/flowtable.o
 .text.create_entry
                0x0000000000003f74        0x6 obj_z1/flowtable.o
                0x0000000000003f74                create_entry
 .text.create_window
                0x0000000000003f7a       0x1e obj_z1/flowtable.o
                0x0000000000003f7a                create_window
 .text.create_action
                0x0000000000003f98       0x7c obj_z1/flowtable.o
                0x0000000000003f98                create_action
 .text.add_window
                0x0000000000004014        0xa obj_z1/flowtable.o
                0x0000000000004014                add_window
 .text.add_action
                0x000000000000401e        0xa obj_z1/flowtable.o
                0x000000000000401e                add_action
 .text.print_entry
                0x0000000000004028       0xcc obj_z1/flowtable.o
                0x0000000000004028                print_entry
 .text.print_flowtable
                0x00000000000040f4       0x30 obj_z1/flowtable.o
                0x00000000000040f4                print_flowtable
 .text.remove_flowtable
                0x0000000000004124        0xe obj_z1/flowtable.o
                0x0000000000004124                remove_flowtable
 .text.flowtable_init
                0x0000000000004132       0x2a obj_z1/flowtable.o
                0x0000000000004132                flowtable_init
 .text.get_window_from_array
                0x000000000000415c       0x70 obj_z1/flowtable.o
                0x000000000000415c                get_window_from_array
 .text.get_action_from_array
                0x00000000000041cc       0x10 obj_z1/flowtable.o
                0x00000000000041cc                get_action_from_array
 .text.get_entry_from_array
                0x00000000000041dc       0x72 obj_z1/flowtable.o
                0x00000000000041dc                get_entry_from_array
 .text.window_cmp
                0x000000000000424e       0x5a obj_z1/flowtable.o
                0x000000000000424e                window_cmp
 .text.entry_cmp
                0x00000000000042a8       0x50 obj_z1/flowtable.o
                0x00000000000042a8                entry_cmp
 .text.add_entry
                0x00000000000042f8       0x5a obj_z1/flowtable.o
                0x00000000000042f8                add_entry
 .text.match_window
                0x0000000000004352       0x7a obj_z1/flowtable.o
                0x0000000000004352                match_window
 .text.run_action
                0x00000000000043cc      0x12e obj_z1/flowtable.o
                0x00000000000043cc                run_action
 .text.match_entry
                0x00000000000044fa       0x6e obj_z1/flowtable.o
                0x00000000000044fa                match_entry
 .text.match_packet
                0x0000000000004568       0x3c obj_z1/flowtable.o
                0x0000000000004568                match_packet
 .text.print_report_data
                0x00000000000045a4       0x1e obj_z1/packet-buffer.o
                0x00000000000045a4                print_report_data
 .text.print_report_config
                0x00000000000045c2       0x1e obj_z1/packet-buffer.o
                0x00000000000045c2                print_report_config
 .text.print_packet
                0x00000000000045e0       0xaa obj_z1/packet-buffer.o
                0x00000000000045e0                print_packet
 .text.packet_deallocate
                0x000000000000468a       0x1c obj_z1/packet-buffer.o
                0x000000000000468a                packet_deallocate
 .text.get_payload_at
                0x00000000000046a6       0x14 obj_z1/packet-buffer.o
                0x00000000000046a6                get_payload_at
 .text.set_payload_at
                0x00000000000046ba       0x2a obj_z1/packet-buffer.o
                0x00000000000046ba                set_payload_at
 .text.create_packet_empty
                0x00000000000046e4       0x34 obj_z1/packet-buffer.o
                0x00000000000046e4                create_packet_empty
 .text.create_packet
                0x0000000000004718       0x66 obj_z1/packet-buffer.o
                0x0000000000004718                create_packet
 .text.create_packet_payload
                0x000000000000477e       0x38 obj_z1/packet-buffer.o
                0x000000000000477e                create_packet_payload
 .text.get_packet_from_array
                0x00000000000047b6       0x8a obj_z1/packet-buffer.o
                0x00000000000047b6                get_packet_from_array
 .text.packet_buffer_init
                0x0000000000004840        0xa obj_z1/packet-buffer.o
                0x0000000000004840                packet_buffer_init
 .text.print_address
                0x000000000000484a       0x26 obj_z1/address.o
                0x000000000000484a                print_address
 .text.get_address_from_array
                0x0000000000004870       0x16 obj_z1/address.o
                0x0000000000004870                get_address_from_array
 .text.set_broadcast_address
                0x0000000000004886        0xa obj_z1/address.o
                0x0000000000004886                set_broadcast_address
 .text.address_cmp
                0x0000000000004890       0x1a obj_z1/address.o
                0x0000000000004890                address_cmp
 .text.address_list_contains
                0x00000000000048aa       0x2a obj_z1/address.o
                0x00000000000048aa                address_list_contains
 .text.is_my_address
                0x00000000000048d4       0x2a obj_z1/address.o
                0x00000000000048d4                is_my_address
 .text.address_list_init
                0x00000000000048fe       0x12 obj_z1/address.o
                0x00000000000048fe                address_list_init
 .text.neighbor_free
                0x0000000000004910       0x2c obj_z1/neighbor-table.o
 .text.print_neighbor_table
                0x000000000000493c       0x52 obj_z1/neighbor-table.o
                0x000000000000493c                print_neighbor_table
 .text.reset_isalive_neighbor
                0x000000000000498e       0x16 obj_z1/neighbor-table.o
                0x000000000000498e                reset_isalive_neighbor
 .text.neighbor_table_contains
                0x00000000000049a4       0x2a obj_z1/neighbor-table.o
                0x00000000000049a4                neighbor_table_contains
 .text.add_neighbor
                0x00000000000049ce       0x5c obj_z1/neighbor-table.o
                0x00000000000049ce                add_neighbor
 .text.remove_neighbor
                0x0000000000004a2a       0x16 obj_z1/neighbor-table.o
                0x0000000000004a2a                remove_neighbor
 .text.update_topo_neighbor
                0x0000000000004a40       0x40 obj_z1/neighbor-table.o
                0x0000000000004a40                update_topo_neighbor
 .text.fill_payload_with_neighbors
                0x0000000000004a80       0x5c obj_z1/neighbor-table.o
                0x0000000000004a80                fill_payload_with_neighbors
 .text.neighbor_table_init
                0x0000000000004adc       0x12 obj_z1/neighbor-table.o
                0x0000000000004adc                neighbor_table_init
 .text.handle_open_path
                0x0000000000004aee      0x222 obj_z1/packet-handler.o
 .text.handle_packet
                0x0000000000004d10      0x388 obj_z1/packet-handler.o
                0x0000000000004d10                handle_packet
 .text.node_conf_init
                0x0000000000005098       0x56 obj_z1/node-conf.o
                0x0000000000005098                node_conf_init
 .text.create_beacon
                0x00000000000050ee       0x8a obj_z1/packet-creator.o
                0x00000000000050ee                create_beacon
 .text.create_report
                0x0000000000005178       0x44 obj_z1/packet-creator.o
                0x0000000000005178                create_report
 .text.create_and_send_request
                0x00000000000051bc      0x19c obj_z1/packet-creator.o
                0x00000000000051bc                create_and_send_request
 .text.init_platform
                0x0000000000005358        0xc contiki-z1.a(contiki-z1-plat)
                0x0000000000005358                init_platform
 .text.msp430_init_dco
                0x0000000000005364       0x28 contiki-z1.a(msp430.o)
                0x0000000000005364                msp430_init_dco
 .text.splhigh_
                0x000000000000538c        0x8 contiki-z1.a(msp430.o)
                0x000000000000538c                splhigh_
 .text.msp430_sync_dco
                0x0000000000005394       0x72 contiki-z1.a(msp430.o)
                0x0000000000005394                msp430_sync_dco
 .text.msp430_cpu_init
                0x0000000000005406       0x2e contiki-z1.a(msp430.o)
                0x0000000000005406                msp430_cpu_init
 .text.show_leds
                0x0000000000005434       0xee contiki-z1.a(leds.o)
 .text.leds_init
                0x0000000000005522        0xa contiki-z1.a(leds.o)
                0x0000000000005522                leds_init
 .text.leds_on  0x000000000000552c        0xa contiki-z1.a(leds.o)
                0x000000000000552c                leds_on
 .text.leds_off
                0x0000000000005536        0xe contiki-z1.a(leds.o)
                0x0000000000005536                leds_off
 .text.leds_toggle
                0x0000000000005544        0xa contiki-z1.a(leds.o)
                0x0000000000005544                leds_toggle
 .text.watchdog_interrupt
                0x000000000000554e        0x6 contiki-z1.a(watchdog.o)
                0x000000000000554e                __isr_26
                0x000000000000554e                watchdog_interrupt
 .text.watchdog_start
                0x0000000000005554       0x14 contiki-z1.a(watchdog.o)
                0x0000000000005554                watchdog_start
 .text.watchdog_periodic
                0x0000000000005568       0x12 contiki-z1.a(watchdog.o)
                0x0000000000005568                watchdog_periodic
 .text.watchdog_stop
                0x000000000000557a       0x16 contiki-z1.a(watchdog.o)
                0x000000000000557a                watchdog_stop
 .text.watchdog_init
                0x0000000000005590       0x14 contiki-z1.a(watchdog.o)
                0x0000000000005590                watchdog_init
 .text.wait_ready
                0x00000000000055a4       0x4e contiki-z1.a(xmem.o)
 .text.xmem_init
                0x00000000000055f2       0x1e contiki-z1.a(xmem.o)
                0x00000000000055f2                xmem_init
 .text.xmem_pread
                0x0000000000005610       0xd0 contiki-z1.a(xmem.o)
                0x0000000000005610                xmem_pread
 .text.spi_init
                0x00000000000056e0       0x38 contiki-z1.a(spi.o)
                0x00000000000056e0                spi_init
 .text.get_object
                0x0000000000005718        0x4 contiki-z1.a(cc2420.o)
 .text.set_object
                0x000000000000571c        0x4 contiki-z1.a(cc2420.o)
 .text.strobe   0x0000000000005720       0x20 contiki-z1.a(cc2420.o)
 .text.getreg   0x0000000000005740       0x50 contiki-z1.a(cc2420.o)
 .text.setreg   0x0000000000005790       0x52 contiki-z1.a(cc2420.o)
 .text.write_ram
                0x00000000000057e2       0x7e contiki-z1.a(cc2420.o)
 .text.write_fifo_buf
                0x0000000000005860       0x40 contiki-z1.a(cc2420.o)
 .text.get_status
                0x00000000000058a0       0x24 contiki-z1.a(cc2420.o)
 .text.set_txpower
                0x00000000000058c4       0x26 contiki-z1.a(cc2420.o)
 .text.cc2420_receiving_packet
                0x00000000000058ea        0xe contiki-z1.a(cc2420.o)
 .text.pending_packet
                0x00000000000058f8        0xe contiki-z1.a(cc2420.o)
 .text.on       0x0000000000005906       0x26 contiki-z1.a(cc2420.o)
 .text.wait_for_transmission
                0x000000000000592c       0x22 contiki-z1.a(cc2420.o)
 .text.wait_for_status
                0x000000000000594e       0x26 contiki-z1.a(cc2420.o)
 .text.getrxdata
                0x0000000000005974       0x54 contiki-z1.a(cc2420.o)
 .text.flushrx  0x00000000000059c8       0x1a contiki-z1.a(cc2420.o)
 .text.off      0x00000000000059e2       0x5e contiki-z1.a(cc2420.o)
 .text.RELEASE_LOCK
                0x0000000000005a40       0x28 contiki-z1.a(cc2420.o)
 .text.set_key  0x0000000000005a68       0x18 contiki-z1.a(cc2420.o)
 .text.set_frame_filtering
                0x0000000000005a80       0x30 contiki-z1.a(cc2420.o)
 .text.set_auto_ack
                0x0000000000005ab0       0x30 contiki-z1.a(cc2420.o)
 .text.set_poll_mode
                0x0000000000005ae0       0x36 contiki-z1.a(cc2420.o)
 .text.cc2420_prepare
                0x0000000000005b16       0x38 contiki-z1.a(cc2420.o)
 .text.cc2420_on
                0x0000000000005b4e       0x22 contiki-z1.a(cc2420.o)
                0x0000000000005b4e                cc2420_on
 .text.cc2420_off
                0x0000000000005b70       0x30 contiki-z1.a(cc2420.o)
                0x0000000000005b70                cc2420_off
 .text.cc2420_cca
                0x0000000000005ba0       0x5a contiki-z1.a(cc2420.o)
 .text.cc2420_read
                0x0000000000005bfa       0xbc contiki-z1.a(cc2420.o)
 .text.process_thread_cc2420_process
                0x0000000000005cb6       0x58 contiki-z1.a(cc2420.o)
 .text.encrypt  0x0000000000005d0e       0x8c contiki-z1.a(cc2420.o)
 .text.cc2420_set_channel
                0x0000000000005d9a       0x3a contiki-z1.a(cc2420.o)
                0x0000000000005d9a                cc2420_set_channel
 .text.cc2420_set_pan_addr
                0x0000000000005dd4       0x4c contiki-z1.a(cc2420.o)
                0x0000000000005dd4                cc2420_set_pan_addr
 .text.cc2420_interrupt
                0x0000000000005e20       0x18 contiki-z1.a(cc2420.o)
                0x0000000000005e20                cc2420_interrupt
 .text.cc2420_set_txpower
                0x0000000000005e38        0xe contiki-z1.a(cc2420.o)
                0x0000000000005e38                cc2420_set_txpower
 .text.cc2420_get_txpower
                0x0000000000005e46       0x1e contiki-z1.a(cc2420.o)
                0x0000000000005e46                cc2420_get_txpower
 .text.cc2420_transmit
                0x0000000000005e64      0x12c contiki-z1.a(cc2420.o)
 .text.cc2420_send
                0x0000000000005f90       0x12 contiki-z1.a(cc2420.o)
 .text.cc2420_rssi
                0x0000000000005fa2       0x48 contiki-z1.a(cc2420.o)
                0x0000000000005fa2                cc2420_rssi
 .text.get_value
                0x0000000000005fea      0x102 contiki-z1.a(cc2420.o)
 .text.cc2420_set_cca_threshold
                0x00000000000060ec       0x16 contiki-z1.a(cc2420.o)
                0x00000000000060ec                cc2420_set_cca_threshold
 .text.set_value
                0x0000000000006102       0xb4 contiki-z1.a(cc2420.o)
 .text.cc2420_init
                0x00000000000061b6       0xf0 contiki-z1.a(cc2420.o)
                0x00000000000061b6                cc2420_init
 .text.cc2420_arch_init
                0x00000000000062a6       0x1a contiki-z1.a(cc2420-arch.o)
                0x00000000000062a6                cc2420_arch_init
 .text.node_id_restore
                0x00000000000062c0       0x4c contiki-z1.a(node-id.o)
                0x00000000000062c0                node_id_restore
 .text.process_thread_sensors_process
                0x000000000000630c       0xbe contiki-z1.a(sensors.o)
 .text.sensors_changed
                0x00000000000063ca       0x2a contiki-z1.a(sensors.o)
                0x00000000000063ca                sensors_changed
 .text.uart0_active
                0x00000000000063f4        0xe contiki-z1.a(uart0.o)
                0x00000000000063f4                uart0_active
 .text.uart0_set_input
                0x0000000000006402        0x6 contiki-z1.a(uart0.o)
                0x0000000000006402                uart0_set_input
 .text.uart0_writeb
                0x0000000000006408       0x18 contiki-z1.a(uart0.o)
                0x0000000000006408                uart0_writeb
 .text.uart0_init
                0x0000000000006420       0x54 contiki-z1.a(uart0.o)
                0x0000000000006420                uart0_init
 .text.uart0_rx_interrupt
                0x0000000000006474       0x66 contiki-z1.a(uart0.o)
                0x0000000000006474                __isr_23
                0x0000000000006474                uart0_rx_interrupt
 .text.putchar  0x00000000000064da       0x10 contiki-z1.a(uart0-putchar.o)
                0x00000000000064da                putchar
 .text.status   0x00000000000064ea       0x12 contiki-z1.a(adxl345.o)
 .text.accm_write_reg
                0x00000000000064fc       0x2e contiki-z1.a(adxl345.o)
 .text.accm_write_stream
                0x000000000000652a       0x2a contiki-z1.a(adxl345.o)
 .text.accm_read_reg
                0x0000000000006554       0x54 contiki-z1.a(adxl345.o)
 .text.process_thread_accmeter_process
                0x00000000000065a8       0x56 contiki-z1.a(adxl345.o)
 .text.accm_read_axis
                0x00000000000065fe       0x66 contiki-z1.a(adxl345.o)
                0x00000000000065fe                accm_read_axis
 .text.value    0x0000000000006664       0x20 contiki-z1.a(adxl345.o)
 .text.accm_init
                0x0000000000006684       0x76 contiki-z1.a(adxl345.o)
                0x0000000000006684                accm_init
 .text.accm_stop
                0x00000000000066fa       0x32 contiki-z1.a(adxl345.o)
                0x00000000000066fa                accm_stop
 .text.configure
                0x000000000000672c       0x26 contiki-z1.a(adxl345.o)
 .text.port1_isr
                0x0000000000006752       0xc4 contiki-z1.a(adxl345.o)
                0x0000000000006752                port1_isr
                0x0000000000006752                __isr_18
 .text.value    0x0000000000006816        0x6 contiki-z1.a(battery-sensor.)
 .text.status   0x000000000000681c        0xc contiki-z1.a(battery-sensor.)
 .text.configure
                0x0000000000006828       0x12 contiki-z1.a(battery-sensor.)
 .text.sky_sensors_status
                0x000000000000683a       0x42 contiki-z1.a(sky-sensors.o)
                0x000000000000683a                sky_sensors_status
 .text.sky_sensors_configure
                0x000000000000687c       0xf4 contiki-z1.a(sky-sensors.o)
                0x000000000000687c                sky_sensors_configure
 .text.status   0x0000000000006970       0x12 contiki-z1.a(tmp102.o)
 .text.tmp102_init
                0x0000000000006982       0x24 contiki-z1.a(tmp102.o)
                0x0000000000006982                tmp102_init
 .text.tmp102_stop
                0x00000000000069a6        0xc contiki-z1.a(tmp102.o)
                0x00000000000069a6                tmp102_stop
 .text.configure
                0x00000000000069b2       0x26 contiki-z1.a(tmp102.o)
 .text.tmp102_read_reg
                0x00000000000069d8       0x60 contiki-z1.a(tmp102.o)
                0x00000000000069d8                tmp102_read_reg
 .text.tmp102_read_temp_x100
                0x0000000000006a38       0x56 contiki-z1.a(tmp102.o)
                0x0000000000006a38                tmp102_read_temp_x100
 .text.value    0x0000000000006a8e        0x6 contiki-z1.a(tmp102.o)
 .text.timera1  0x0000000000006a94      0x10a contiki-z1.a(clock.o)
                0x0000000000006a94                __isr_24
                0x0000000000006a94                timera1
 .text.clock_time
                0x0000000000006b9e       0x1a contiki-z1.a(clock.o)
                0x0000000000006b9e                clock_time
 .text.clock_init
                0x0000000000006bb8       0x28 contiki-z1.a(clock.o)
                0x0000000000006bb8                clock_init
 .text.clock_delay
                0x0000000000006be0        0xc contiki-z1.a(clock.o)
                0x0000000000006be0                clock_delay
 .text.clock_wait
                0x0000000000006bec       0x28 contiki-z1.a(clock.o)
                0x0000000000006bec                clock_wait
 .text.leds_arch_init
                0x0000000000006c14        0xe contiki-z1.a(leds-arch.o)
                0x0000000000006c14                leds_arch_init
 .text.leds_arch_set
                0x0000000000006c22       0x3a contiki-z1.a(leds-arch.o)
                0x0000000000006c22                leds_arch_set
 .text.rtimer_arch_init
                0x0000000000006c5c        0xe contiki-z1.a(rtimer-arch.o)
                0x0000000000006c5c                rtimer_arch_init
 .text.rtimer_arch_now
                0x0000000000006c6a        0xe contiki-z1.a(rtimer-arch.o)
                0x0000000000006c6a                rtimer_arch_now
 .text.timera0  0x0000000000006c78       0x5c contiki-z1.a(rtimer-arch.o)
                0x0000000000006c78                __isr_25
                0x0000000000006c78                timera0
 .text.rtimer_arch_schedule
                0x0000000000006cd4        0x6 contiki-z1.a(rtimer-arch.o)
                0x0000000000006cd4                rtimer_arch_schedule
 .text.autostart_start
                0x0000000000006cda       0x16 contiki-z1.a(autostart.o)
                0x0000000000006cda                autostart_start
 .text.energest_init
                0x0000000000006cf0       0x28 contiki-z1.a(energest.o)
                0x0000000000006cf0                energest_init
 .text.energest_type_time
                0x0000000000006d18       0x3c contiki-z1.a(energest.o)
                0x0000000000006d18                energest_type_time
 .text.energest_type_set
                0x0000000000006d54        0xc contiki-z1.a(energest.o)
                0x0000000000006d54                energest_type_set
 .text.energest_flush
                0x0000000000006d60       0x38 contiki-z1.a(energest.o)
                0x0000000000006d60                energest_flush
 .text.update_time
                0x0000000000006d98       0x70 contiki-z1.a(etimer.o)
 .text.etimer_request_poll
                0x0000000000006e08        0xa contiki-z1.a(etimer.o)
                0x0000000000006e08                etimer_request_poll
 .text.process_thread_etimer_process
                0x0000000000006e12       0xc0 contiki-z1.a(etimer.o)
 .text.add_timer
                0x0000000000006ed2       0x40 contiki-z1.a(etimer.o)
 .text.etimer_set
                0x0000000000006f12       0x12 contiki-z1.a(etimer.o)
                0x0000000000006f12                etimer_set
 .text.etimer_reset
                0x0000000000006f24       0x12 contiki-z1.a(etimer.o)
                0x0000000000006f24                etimer_reset
 .text.etimer_expired
                0x0000000000006f36        0xe contiki-z1.a(etimer.o)
                0x0000000000006f36                etimer_expired
 .text.etimer_pending
                0x0000000000006f44        0xc contiki-z1.a(etimer.o)
                0x0000000000006f44                etimer_pending
 .text.etimer_next_expiration_time
                0x0000000000006f50       0x16 contiki-z1.a(etimer.o)
                0x0000000000006f50                etimer_next_expiration_time
 .text.etimer_stop
                0x0000000000006f66       0x3c contiki-z1.a(etimer.o)
                0x0000000000006f66                etimer_stop
 .text.process_thread_ctimer_process
                0x0000000000006fa2       0x9c contiki-z1.a(ctimer.o)
 .text.ctimer_init
                0x000000000000703e       0x18 contiki-z1.a(ctimer.o)
                0x000000000000703e                ctimer_init
 .text.ctimer_set_with_process
                0x0000000000007056       0x4e contiki-z1.a(ctimer.o)
                0x0000000000007056                ctimer_set_with_process
 .text.ctimer_set
                0x00000000000070a4       0x10 contiki-z1.a(ctimer.o)
                0x00000000000070a4                ctimer_set
 .text.ctimer_stop
                0x00000000000070b4       0x28 contiki-z1.a(ctimer.o)
                0x00000000000070b4                ctimer_stop
 .text.call_process
                0x00000000000070dc       0x46 contiki-z1.a(process.o)
 .text.exit_process
                0x0000000000007122       0x8a contiki-z1.a(process.o)
 .text.do_poll  0x00000000000071ac       0x30 contiki-z1.a(process.o)
 .text.process_alloc_event
                0x00000000000071dc        0xe contiki-z1.a(process.o)
                0x00000000000071dc                process_alloc_event
 .text.process_init
                0x00000000000071ea       0x1c contiki-z1.a(process.o)
                0x00000000000071ea                process_init
 .text.process_run
                0x0000000000007206       0x8c contiki-z1.a(process.o)
                0x0000000000007206                process_run
 .text.process_nevents
                0x0000000000007292        0xe contiki-z1.a(process.o)
                0x0000000000007292                process_nevents
 .text.process_post
                0x00000000000072a0       0x4a contiki-z1.a(process.o)
                0x00000000000072a0                process_post
 .text.process_post_synch
                0x00000000000072ea       0x12 contiki-z1.a(process.o)
                0x00000000000072ea                process_post_synch
 .text.process_start
                0x00000000000072fc       0x32 contiki-z1.a(process.o)
                0x00000000000072fc                process_start
 .text.process_poll
                0x000000000000732e       0x18 contiki-z1.a(process.o)
                0x000000000000732e                process_poll
 .text.rtimer_init
                0x0000000000007346        0x6 contiki-z1.a(rtimer.o)
                0x0000000000007346                rtimer_init
 .text.rtimer_set
                0x000000000000734c       0x24 contiki-z1.a(rtimer.o)
                0x000000000000734c                rtimer_set
 .text.rtimer_run_next
                0x0000000000007370       0x26 contiki-z1.a(rtimer.o)
                0x0000000000007370                rtimer_run_next
 .text.timer_set
                0x0000000000007396       0x1c contiki-z1.a(timer.o)
                0x0000000000007396                timer_set
 .text.timer_reset
                0x00000000000073b2        0xe contiki-z1.a(timer.o)
                0x00000000000073b2                timer_reset
 .text.timer_expired
                0x00000000000073c0       0x2a contiki-z1.a(timer.o)
                0x00000000000073c0                timer_expired
 .text.process_thread_serial_line_process
                0x00000000000073ea       0x9c contiki-z1.a(serial-line.o)
 .text.serial_line_input_byte
                0x0000000000007486       0x4a contiki-z1.a(serial-line.o)
                0x0000000000007486                serial_line_input_byte
 .text.serial_line_init
                0x00000000000074d0       0x1c contiki-z1.a(serial-line.o)
                0x00000000000074d0                serial_line_init
 .text.list_init
                0x00000000000074ec        0x6 contiki-z1.a(list.o)
                0x00000000000074ec                list_init
 .text.list_head
                0x00000000000074f2        0x4 contiki-z1.a(list.o)
                0x00000000000074f2                list_head
 .text.list_tail
                0x00000000000074f6       0x12 contiki-z1.a(list.o)
                0x00000000000074f6                list_tail
 .text.list_remove
                0x0000000000007508       0x34 contiki-z1.a(list.o)
                0x0000000000007508                list_remove
 .text.list_push
                0x000000000000753c       0x16 contiki-z1.a(list.o)
                0x000000000000753c                list_push
 .text.list_add
                0x0000000000007552       0x26 contiki-z1.a(list.o)
                0x0000000000007552                list_add
 .text.list_length
                0x0000000000007578       0x10 contiki-z1.a(list.o)
                0x0000000000007578                list_length
 .text.list_item_next
                0x0000000000007588        0xc contiki-z1.a(list.o)
                0x0000000000007588                list_item_next
 .text.memb_init
                0x0000000000007594       0x36 contiki-z1.a(memb.o)
                0x0000000000007594                memb_init
 .text.memb_alloc
                0x00000000000075ca       0x3e contiki-z1.a(memb.o)
                0x00000000000075ca                memb_alloc
 .text.memb_free
                0x0000000000007608       0x3a contiki-z1.a(memb.o)
                0x0000000000007608                memb_free
 .text.memb_inmemb
                0x0000000000007642       0x2e contiki-z1.a(memb.o)
                0x0000000000007642                memb_inmemb
 .text.random_init
                0x0000000000007670        0x6 contiki-z1.a(random.o)
                0x0000000000007670                random_init
 .text.random_rand
                0x0000000000007676        0x6 contiki-z1.a(random.o)
                0x0000000000007676                random_rand
 .text.ringbuf_init
                0x000000000000767c       0x14 contiki-z1.a(ringbuf.o)
                0x000000000000767c                ringbuf_init
 .text.ringbuf_put
                0x0000000000007690       0x38 contiki-z1.a(ringbuf.o)
                0x0000000000007690                ringbuf_put
 .text.ringbuf_get
                0x00000000000076c8       0x30 contiki-z1.a(ringbuf.o)
                0x00000000000076c8                ringbuf_get
 .text.sent_by_abc
                0x00000000000076f8       0x10 contiki-z1.a(broadcast.o)
 .text.recv_from_abc
                0x0000000000007708       0x26 contiki-z1.a(broadcast.o)
 .text.broadcast_open
                0x000000000000772e       0x22 contiki-z1.a(broadcast.o)
                0x000000000000772e                broadcast_open
 .text.broadcast_close
                0x0000000000007750        0x6 contiki-z1.a(broadcast.o)
                0x0000000000007750                broadcast_close
 .text.broadcast_send
                0x0000000000007756       0x1a contiki-z1.a(broadcast.o)
                0x0000000000007756                broadcast_send
 .text.input    0x0000000000007770       0x36 contiki-z1.a(rime.o)
 .text.init     0x00000000000077a6       0x2e contiki-z1.a(rime.o)
 .text.packet_sent
                0x00000000000077d4       0x38 contiki-z1.a(rime.o)
 .text.rime_output
                0x000000000000780c       0x24 contiki-z1.a(rime.o)
                0x000000000000780c                rime_output
 .text.sent_by_broadcast
                0x0000000000007830       0x10 contiki-z1.a(unicast.o)
 .text.recv_from_broadcast
                0x0000000000007840       0x2a contiki-z1.a(unicast.o)
 .text.unicast_open
                0x000000000000786a       0x22 contiki-z1.a(unicast.o)
                0x000000000000786a                unicast_open
 .text.unicast_close
                0x000000000000788c        0x6 contiki-z1.a(unicast.o)
                0x000000000000788c                unicast_close
 .text.unicast_send
                0x0000000000007892       0x16 contiki-z1.a(unicast.o)
                0x0000000000007892                unicast_send
 .text.queuebuf_init
                0x00000000000078a8       0x12 contiki-z1.a(queuebuf.o)
                0x00000000000078a8                queuebuf_init
 .text.queuebuf_new_from_packetbuf
                0x00000000000078ba       0x4e contiki-z1.a(queuebuf.o)
                0x00000000000078ba                queuebuf_new_from_packetbuf
 .text.queuebuf_update_attr_from_packetbuf
                0x0000000000007908       0x12 contiki-z1.a(queuebuf.o)
                0x0000000000007908                queuebuf_update_attr_from_packetbuf
 .text.queuebuf_update_from_packetbuf
                0x000000000000791a       0x22 contiki-z1.a(queuebuf.o)
                0x000000000000791a                queuebuf_update_from_packetbuf
 .text.queuebuf_free
                0x000000000000793c       0x2a contiki-z1.a(queuebuf.o)
                0x000000000000793c                queuebuf_free
 .text.queuebuf_to_packetbuf
                0x0000000000007966       0x32 contiki-z1.a(queuebuf.o)
                0x0000000000007966                queuebuf_to_packetbuf
 .text.queuebuf_attr
                0x0000000000007998        0xe contiki-z1.a(queuebuf.o)
                0x0000000000007998                queuebuf_attr
 .text.packetbuf_hdrreduce
                0x00000000000079a6       0x1a contiki-z1.a(packetbuf.o)
                0x00000000000079a6                packetbuf_hdrreduce
 .text.packetbuf_set_datalen
                0x00000000000079c0        0x6 contiki-z1.a(packetbuf.o)
                0x00000000000079c0                packetbuf_set_datalen
 .text.packetbuf_hdrptr
                0x00000000000079c6        0x6 contiki-z1.a(packetbuf.o)
                0x00000000000079c6                packetbuf_hdrptr
 .text.packetbuf_datalen
                0x00000000000079cc        0x6 contiki-z1.a(packetbuf.o)
                0x00000000000079cc                packetbuf_datalen
 .text.packetbuf_hdrlen
                0x00000000000079d2        0xa contiki-z1.a(packetbuf.o)
                0x00000000000079d2                packetbuf_hdrlen
 .text.packetbuf_dataptr
                0x00000000000079dc        0xc contiki-z1.a(packetbuf.o)
                0x00000000000079dc                packetbuf_dataptr
 .text.packetbuf_copyto
                0x00000000000079e8       0x3a contiki-z1.a(packetbuf.o)
                0x00000000000079e8                packetbuf_copyto
 .text.packetbuf_compact
                0x0000000000007a22       0x36 contiki-z1.a(packetbuf.o)
                0x0000000000007a22                packetbuf_compact
 .text.packetbuf_totlen
                0x0000000000007a58        0xc contiki-z1.a(packetbuf.o)
                0x0000000000007a58                packetbuf_totlen
 .text.packetbuf_hdralloc
                0x0000000000007a64       0x3a contiki-z1.a(packetbuf.o)
                0x0000000000007a64                packetbuf_hdralloc
 .text.packetbuf_attr_clear
                0x0000000000007a9e       0x2c contiki-z1.a(packetbuf.o)
                0x0000000000007a9e                packetbuf_attr_clear
 .text.packetbuf_clear
                0x0000000000007aca       0x12 contiki-z1.a(packetbuf.o)
                0x0000000000007aca                packetbuf_clear
 .text.packetbuf_copyfrom
                0x0000000000007adc       0x2a contiki-z1.a(packetbuf.o)
                0x0000000000007adc                packetbuf_copyfrom
 .text.packetbuf_attr_copyto
                0x0000000000007b06       0x20 contiki-z1.a(packetbuf.o)
                0x0000000000007b06                packetbuf_attr_copyto
 .text.packetbuf_attr_copyfrom
                0x0000000000007b26       0x22 contiki-z1.a(packetbuf.o)
                0x0000000000007b26                packetbuf_attr_copyfrom
 .text.packetbuf_holds_broadcast
                0x0000000000007b48        0xe contiki-z1.a(packetbuf.o)
                0x0000000000007b48                packetbuf_holds_broadcast
 .text.linkaddr_copy
                0x0000000000007b56        0xc contiki-z1.a(linkaddr.o)
                0x0000000000007b56                linkaddr_copy
 .text.linkaddr_cmp
                0x0000000000007b62       0x12 contiki-z1.a(linkaddr.o)
                0x0000000000007b62                linkaddr_cmp
 .text.linkaddr_set_node_addr
                0x0000000000007b74        0xc contiki-z1.a(linkaddr.o)
                0x0000000000007b74                linkaddr_set_node_addr
 .text.input_packet
                0x0000000000007b80        0x6 contiki-z1.a(csma.o)
 .text.on       0x0000000000007b86        0x6 contiki-z1.a(csma.o)
 .text.off      0x0000000000007b8c        0x6 contiki-z1.a(csma.o)
 .text.channel_check_interval
                0x0000000000007b92       0x10 contiki-z1.a(csma.o)
 .text.transmit_packet_list
                0x0000000000007ba2       0x24 contiki-z1.a(csma.o)
 .text.schedule_transmission
                0x0000000000007bc6       0x84 contiki-z1.a(csma.o)
 .text.send_packet
                0x0000000000007c4a      0x164 contiki-z1.a(csma.o)
 .text.init     0x0000000000007dae       0x1a contiki-z1.a(csma.o)
 .text.tx_done  0x0000000000007dc8       0x84 contiki-z1.a(csma.o)
 .text.packet_sent
                0x0000000000007e4c       0xc6 contiki-z1.a(csma.o)
 .text.duty_cycle
                0x0000000000007f12        0x6 contiki-z1.a(contikimac.o)
 .text.init     0x0000000000007f18       0x2a contiki-z1.a(contikimac.o)
 .text.on       0x0000000000007f42       0x1a contiki-z1.a(contikimac.o)
 .text.off      0x0000000000007f5c       0x22 contiki-z1.a(contikimac.o)
 .text.recv_burst_off
                0x0000000000007f7e        0xa contiki-z1.a(contikimac.o)
 .text.turn_off
                0x0000000000007f88       0x20 contiki-z1.a(contikimac.o)
 .text.turn_on  0x0000000000007fa8       0x30 contiki-z1.a(contikimac.o)
 .text.schedule_powercycle_fixed.part.4
                0x0000000000007fd8       0x32 contiki-z1.a(contikimac.o)
 .text.powercycle_turn_radio_off
                0x000000000000800a       0x30 contiki-z1.a(contikimac.o)
 .text.powercycle_wrapper
                0x000000000000803a      0x1ba contiki-z1.a(contikimac.o)
 .text.input_packet
                0x00000000000081f4       0xb2 contiki-z1.a(contikimac.o)
 .text.send_packet.isra.8
                0x00000000000082a6      0x1d0 contiki-z1.a(contikimac.o)
 .text.qsend_list
                0x0000000000008476       0xc2 contiki-z1.a(contikimac.o)
 .text.qsend_packet
                0x0000000000008538       0x28 contiki-z1.a(contikimac.o)
 .text.hdr_length
                0x0000000000008560        0x8 contiki-z1.a(contikimac-fram)
 .text.parse    0x0000000000008568       0x36 contiki-z1.a(contikimac-fram)
 .text.create   0x000000000000859e       0x70 contiki-z1.a(contikimac-fram)
 .text.init     0x000000000000860e        0x2 contiki-z1.a(nullsec.o)
 .text.send     0x0000000000008610        0xa contiki-z1.a(nullsec.o)
 .text.input    0x000000000000861a        0x6 contiki-z1.a(nullsec.o)
 .text.i2c_receiveinit
                0x0000000000008620       0x38 contiki-z1.a(i2cmaster.o)
                0x0000000000008620                i2c_receiveinit
 .text.i2c_transmitinit
                0x0000000000008658       0x32 contiki-z1.a(i2cmaster.o)
                0x0000000000008658                i2c_transmitinit
 .text.i2c_receive_n
                0x000000000000868a       0x44 contiki-z1.a(i2cmaster.o)
                0x000000000000868a                i2c_receive_n
 .text.i2c_busy
                0x00000000000086ce        0xa contiki-z1.a(i2cmaster.o)
                0x00000000000086ce                i2c_busy
 .text.i2c_enable
                0x00000000000086d8       0x24 contiki-z1.a(i2cmaster.o)
                0x00000000000086d8                i2c_enable
 .text.i2c_transmit_n
                0x00000000000086fc       0x14 contiki-z1.a(i2cmaster.o)
                0x00000000000086fc                i2c_transmit_n
 .text.i2c_tx_interrupt
                0x0000000000008710       0x8a contiki-z1.a(i2cmaster.o)
                0x0000000000008710                __isr_16
                0x0000000000008710                i2c_tx_interrupt
 .text.i2c_rx_interrupt
                0x000000000000879a       0x18 contiki-z1.a(i2cmaster.o)
                0x000000000000879a                i2c_rx_interrupt
                0x000000000000879a                __isr_17
 .text.status   0x00000000000087b2       0x16 contiki-z1.a(button-sensor.o)
 .text.configure
                0x00000000000087c8       0x52 contiki-z1.a(button-sensor.o)
 .text.value    0x000000000000881a       0x22 contiki-z1.a(button-sensor.o)
 .text.irq_p2   0x000000000000883c       0x76 contiki-z1.a(button-sensor.o)
                0x000000000000883c                irq_p2
                0x000000000000883c                __isr_19
 .text.compower_accumulate
                0x00000000000088b2       0x6a contiki-z1.a(compower.o)
                0x00000000000088b2                compower_accumulate
 .text.compower_clear
                0x000000000000891c       0x12 contiki-z1.a(compower.o)
                0x000000000000891c                compower_clear
 .text.compower_attrconv
                0x000000000000892e       0x10 contiki-z1.a(compower.o)
                0x000000000000892e                compower_attrconv
 .text.adv_packet_sent
                0x000000000000893e        0x2 contiki-z1.a(broadcast-annou)
 .text.adv_packet_received
                0x0000000000008940       0x58 contiki-z1.a(broadcast-annou)
 .text.set_timers
                0x0000000000008998       0x4a contiki-z1.a(broadcast-annou)
 .text.send_timer
                0x00000000000089e2       0x36 contiki-z1.a(broadcast-annou)
 .text.new_announcement
                0x0000000000008a18       0x18 contiki-z1.a(broadcast-annou)
 .text.send_adv
                0x0000000000008a30       0x60 contiki-z1.a(broadcast-annou)
 .text.broadcast_announcement_init
                0x0000000000008a90       0x44 contiki-z1.a(broadcast-annou)
                0x0000000000008a90                broadcast_announcement_init
 .text.abc_open
                0x0000000000008ad4       0x1e contiki-z1.a(abc.o)
                0x0000000000008ad4                abc_open
 .text.abc_close
                0x0000000000008af2        0x6 contiki-z1.a(abc.o)
                0x0000000000008af2                abc_close
 .text.abc_send
                0x0000000000008af8        0x6 contiki-z1.a(abc.o)
                0x0000000000008af8                abc_send
 .text.abc_input
                0x0000000000008afe        0xe contiki-z1.a(abc.o)
                0x0000000000008afe                abc_input
 .text.abc_sent
                0x0000000000008b0c       0x10 contiki-z1.a(abc.o)
                0x0000000000008b0c                abc_sent
 .text.announcement_init
                0x0000000000008b1c        0xa contiki-z1.a(announcement.o)
                0x0000000000008b1c                announcement_init
 .text.announcement_register_observer_callback
                0x0000000000008b26        0x6 contiki-z1.a(announcement.o)
                0x0000000000008b26                announcement_register_observer_callback
 .text.announcement_list
                0x0000000000008b2c        0xa contiki-z1.a(announcement.o)
                0x0000000000008b2c                announcement_list
 .text.announcement_heard
                0x0000000000008b36       0x36 contiki-z1.a(announcement.o)
                0x0000000000008b36                announcement_heard
 .text.channel_init
                0x0000000000008b6c        0xa contiki-z1.a(channel.o)
                0x0000000000008b6c                channel_init
 .text.channel_open
                0x0000000000008b76       0x10 contiki-z1.a(channel.o)
                0x0000000000008b76                channel_open
 .text.channel_close
                0x0000000000008b86        0xc contiki-z1.a(channel.o)
                0x0000000000008b86                channel_close
 .text.channel_lookup
                0x0000000000008b92       0x20 contiki-z1.a(channel.o)
                0x0000000000008b92                channel_lookup
 .text.channel_set_attributes
                0x0000000000008bb2       0x20 contiki-z1.a(channel.o)
                0x0000000000008bb2                channel_set_attributes
 .text.chameleon_init
                0x0000000000008bd2        0x6 contiki-z1.a(chameleon.o)
                0x0000000000008bd2                chameleon_init
 .text.chameleon_parse
                0x0000000000008bd8       0x10 contiki-z1.a(chameleon.o)
                0x0000000000008bd8                chameleon_parse
 .text.chameleon_create
                0x0000000000008be8       0x1c contiki-z1.a(chameleon.o)
                0x0000000000008be8                chameleon_create
 .text.chameleon_hdrsize
                0x0000000000008c04        0x6 contiki-z1.a(chameleon.o)
                0x0000000000008c04                chameleon_hdrsize
 .text.mac_sequence_is_duplicate
                0x0000000000008c0a       0x52 contiki-z1.a(mac-sequence.o)
                0x0000000000008c0a                mac_sequence_is_duplicate
 .text.mac_sequence_register_seqno
                0x0000000000008c5c       0x64 contiki-z1.a(mac-sequence.o)
                0x0000000000008c5c                mac_sequence_register_seqno
 .text.parse    0x0000000000008cc0       0xac contiki-z1.a(framer-802154.o)
 .text.create_frame.isra.0
                0x0000000000008d6c      0x110 contiki-z1.a(framer-802154.o)
 .text.create   0x0000000000008e7c        0x8 contiki-z1.a(framer-802154.o)
 .text.hdr_length
                0x0000000000008e84        0x8 contiki-z1.a(framer-802154.o)
 .text.frame802154_get_pan_id
                0x0000000000008e8c        0x6 contiki-z1.a(frame802154.o)
                0x0000000000008e8c                frame802154_get_pan_id
 .text.frame802154_has_panid
                0x0000000000008e92       0xdc contiki-z1.a(frame802154.o)
                0x0000000000008e92                frame802154_has_panid
 .text.field_len
                0x0000000000008f6e       0xae contiki-z1.a(frame802154.o)
 .text.frame802154_is_broadcast_addr
                0x000000000000901c       0x24 contiki-z1.a(frame802154.o)
                0x000000000000901c                frame802154_is_broadcast_addr
 .text.frame802154_hdrlen
                0x0000000000009040       0x32 contiki-z1.a(frame802154.o)
                0x0000000000009040                frame802154_hdrlen
 .text.frame802154_create_fcf
                0x0000000000009072       0x6e contiki-z1.a(frame802154.o)
                0x0000000000009072                frame802154_create_fcf
 .text.frame802154_create
                0x00000000000090e0       0xd4 contiki-z1.a(frame802154.o)
                0x00000000000090e0                frame802154_create
 .text.frame802154_parse_fcf
                0x00000000000091b4       0x8a contiki-z1.a(frame802154.o)
                0x00000000000091b4                frame802154_parse_fcf
 .text.frame802154_parse
                0x000000000000923e      0x178 contiki-z1.a(frame802154.o)
                0x000000000000923e                frame802154_parse
 .text.mac_call_sent_callback
                0x00000000000093b6       0x14 contiki-z1.a(mac.o)
                0x00000000000093b6                mac_call_sent_callback
 .text.get_bits_in_byte
                0x00000000000093ca       0x3a contiki-z1.a(chameleon-bitop)
 .text.header_size
                0x0000000000009404       0x16 contiki-z1.a(chameleon-bitop)
 .text.get_bits
                0x000000000000941a       0x8e contiki-z1.a(chameleon-bitop)
                0x000000000000941a                get_bits
 .text.unpack_header
                0x00000000000094a8       0xbc contiki-z1.a(chameleon-bitop)
 .text.set_bits
                0x0000000000009564       0xf6 contiki-z1.a(chameleon-bitop)
                0x0000000000009564                set_bits
 .text.pack_header
                0x000000000000965a       0xa8 contiki-z1.a(chameleon-bitop)
 .text.libgcc   0x0000000000009702       0x2a /usr/lib/gcc/msp430/4.6.3/mcpu-430x/mmpy-16/libgcc.a(_mulsi3.o)
                0x0000000000009702                __mulsi3
 .text.libgcc   0x000000000000972c       0x22 /usr/lib/gcc/msp430/4.6.3/mcpu-430x/mmpy-16/libgcc.a(_udivmod16.o)
                0x000000000000972c                __udivhi3
                0x000000000000972c                __ext_udivmod16
                0x0000000000009746                __umodhi3
 .text.libgcc   0x000000000000974e       0x3a /usr/lib/gcc/msp430/4.6.3/mcpu-430x/mmpy-16/libgcc.a(_divmod16.o)
                0x000000000000974e                __ext_divmod16
                0x000000000000974e                __divhi3
                0x0000000000009780                __modhi3
 .text.libgcc   0x0000000000009788       0x38 /usr/lib/gcc/msp430/4.6.3/mcpu-430x/mmpy-16/libgcc.a(_udivmod32.o)
                0x0000000000009788                __udivsi3
                0x0000000000009788                __ext_udivmod32
                0x00000000000097b6                __umodsi3
 .text          0x00000000000097c0       0x20 /usr/lib/gcc/msp430/4.6.3/../../../../msp430/lib/mcpu-430x/mmpy-16/libc.a(memcmp.o)
                0x00000000000097c0                memcmp
 .text          0x00000000000097e0       0xe4 /usr/lib/gcc/msp430/4.6.3/../../../../msp430/lib/mcpu-430x/mmpy-16/libc.a(memcpy.o)
                0x00000000000097e0                memcpy
 .text          0x00000000000098c4       0x5c /usr/lib/gcc/msp430/4.6.3/../../../../msp430/lib/mcpu-430x/mmpy-16/libc.a(memset.o)
                0x00000000000098c4                memset
 .text          0x0000000000009920       0x1e /usr/lib/gcc/msp430/4.6.3/../../../../msp430/lib/mcpu-430x/mmpy-16/libc.a(printf.o)
                0x0000000000009920                printf
                0x0000000000009930                vprintf
 .text          0x000000000000993e      0x818 /usr/lib/gcc/msp430/4.6.3/../../../../msp430/lib/mcpu-430x/mmpy-16/libc.a(vuprintf.o)
                0x0000000000009aba                vuprintf
 .text          0x000000000000a156       0x2c /usr/lib/gcc/msp430/4.6.3/../../../../msp430/lib/mcpu-430x/mmpy-16/libc.a(puts.o)
                0x000000000000a156                puts
 .text          0x000000000000a182       0x54 /usr/lib/gcc/msp430/4.6.3/../../../../msp430/lib/mcpu-430x/mmpy-16/libc.a(rand.o)
                0x000000000000a182                rand_r
                0x000000000000a1a6                rand
                0x000000000000a1cc                srand
 .text.libgcc   0x000000000000a1d6       0xbc /usr/lib/gcc/msp430/4.6.3/mcpu-430x/mmpy-16/libgcc.a(_udivmod64.o)
                0x000000000000a1d6                __xabi_udivmod64
                0x000000000000a228                __udivdi3
                0x000000000000a242                __umoddi3
                0x000000000000a264                __udivmoddi4
 .text.crt0     0x000000000000a292        0x2 /usr/lib/gcc/msp430/4.6.3/mcpu-430x/mmpy-16/libcrt0.a(_unexpected_.o)
                0x000000000000a292                _unexpected_
                0x000000000000a294                . = ALIGN (0x2)

.rodata         0x000000000000a294      0xa5c
                0x000000000000a294                . = ALIGN (0x2)
 *(.rodata .rodata.* .gnu.linkonce.r.*)
 .rodata        0x000000000000a294      0x12c sdn-wise.co
                0x000000000000a31a                autostart_processes
 .rodata        0x000000000000a3c0      0x272 obj_z1/flowtable.o
 .rodata        0x000000000000a632      0x178 obj_z1/packet-buffer.o
 .rodata        0x000000000000a7aa       0x6c obj_z1/address.o
 .rodata        0x000000000000a816       0x7d obj_z1/neighbor-table.o
 *fill*         0x000000000000a893        0x1 00
 .rodata        0x000000000000a894      0x1ae obj_z1/packet-handler.o
                0x000000000000aa3a                conf_size
 .rodata        0x000000000000aa42        0x5 obj_z1/packet-creator.o
 .rodata        0x000000000000aa47      0x117 obj_z1/contiki-z1-main.o
 .rodata        0x000000000000ab5e       0x70 contiki-z1.a(cc2420.o)
                0x000000000000ab90                cc2420_aes_128_driver
                0x000000000000ab94                cc2420_driver
 .rodata        0x000000000000abce        0x8 contiki-z1.a(sensors.o)
 .rodata        0x000000000000abd6       0x2e contiki-z1.a(adxl345.o)
                0x000000000000abe6                adxl345
 .rodata        0x000000000000ac04       0x10 contiki-z1.a(battery-sensor.)
                0x000000000000ac0c                battery_sensor
 .rodata        0x000000000000ac14       0x16 contiki-z1.a(tmp102.o)
                0x000000000000ac22                tmp102
 .rodata        0x000000000000ac2a        0xc contiki-z1.a(etimer.o)
 .rodata        0x000000000000ac36        0xf contiki-z1.a(ctimer.o)
 .rodata        0x000000000000ac45        0xe contiki-z1.a(serial-line.o)
 *fill*         0x000000000000ac53        0x1 00
 .rodata        0x000000000000ac54        0x8 contiki-z1.a(broadcast.o)
 .rodata        0x000000000000ac5c        0xc contiki-z1.a(rime.o)
                0x000000000000ac62                rime_driver
 .rodata        0x000000000000ac68        0xa contiki-z1.a(unicast.o)
 .rodata        0x000000000000ac72        0x2 contiki-z1.a(linkaddr.o)
                0x000000000000ac72                linkaddr_null
 .rodata        0x000000000000ac74       0x14 contiki-z1.a(csma.o)
                0x000000000000ac7a                csma_driver
 .rodata        0x000000000000ac88       0x1c contiki-z1.a(contikimac.o)
                0x000000000000ac94                contikimac_driver
 .rodata        0x000000000000aca4        0x6 contiki-z1.a(contikimac-fram)
                0x000000000000aca4                contikimac_framer
 .rodata        0x000000000000acaa       0x10 contiki-z1.a(nullsec.o)
                0x000000000000acb2                nullsec_driver
 .rodata        0x000000000000acba       0x10 contiki-z1.a(button-sensor.o)
                0x000000000000acc2                button_sensor
 .rodata        0x000000000000acca        0x4 contiki-z1.a(broadcast-annou)
 .rodata        0x000000000000acce        0x2 contiki-z1.a(abc.o)
 .rodata        0x000000000000acd0        0x6 contiki-z1.a(framer-802154.o)
                0x000000000000acd0                framer_802154
 .rodata        0x000000000000acd6        0x2 contiki-z1.a(frame802154.o)
 .rodata        0x000000000000acd8       0x10 contiki-z1.a(chameleon-bitop)
                0x000000000000acd8                chameleon_bitopt
 .rodata        0x000000000000ace8        0x7 /usr/lib/gcc/msp430/4.6.3/../../../../msp430/lib/mcpu-430x/mmpy-16/libc.a(vuprintf.o)
                0x000000000000acf0                . = ALIGN (0x2)
 *fill*         0x000000000000acef        0x1 00
                0x000000000000acf0                _etext = .

.data           0x0000000000001100      0x1e4 load address 0x000000000000acf0
                0x0000000000001100                . = ALIGN (0x2)
                0x0000000000001100                PROVIDE (__data_start, .)
 *(.data .data.* .gnu.linkonce.d.*)
 .data          0x0000000000001100       0x46 sdn-wise.co
                0x0000000000001100                report_timer_proc
                0x000000000000110a                beacon_timer_proc
                0x0000000000001114                timer_proc
                0x000000000000111e                packet_handler_proc
                0x0000000000001128                rf_b_send_proc
                0x0000000000001132                rf_u_send_proc
                0x000000000000113c                main_proc
 .data          0x0000000000001146       0xae obj_z1/flowtable.o
 .data          0x00000000000011f4       0x52 obj_z1/packet-buffer.o
 .data          0x0000000000001246        0x8 obj_z1/address.o
 .data          0x000000000000124e        0x8 obj_z1/neighbor-table.o
 .data          0x0000000000001256        0x2 contiki-z1.a(msp430.o)
 .data          0x0000000000001258        0xc contiki-z1.a(cc2420.o)
                0x0000000000001258                cc2420_process
 .data          0x0000000000001264        0xa contiki-z1.a(sensors.o)
                0x0000000000001264                sensors_process
 .data          0x000000000000126e        0x8 contiki-z1.a(z1-sensors.o)
                0x000000000000126e                sensors
 .data          0x0000000000001276       0x20 contiki-z1.a(adxl345.o)
                0x0000000000001276                accmeter_process
 .data          0x0000000000001296        0xa contiki-z1.a(etimer.o)
                0x0000000000001296                etimer_process
 .data          0x00000000000012a0        0xa contiki-z1.a(ctimer.o)
                0x00000000000012a0                ctimer_process
 .data          0x00000000000012aa        0xa contiki-z1.a(serial-line.o)
                0x00000000000012aa                serial_line_process
 .data          0x00000000000012b4       0x10 contiki-z1.a(queuebuf.o)
 .data          0x00000000000012c4       0x18 contiki-z1.a(csma.o)
 .data          0x00000000000012dc        0x1 contiki-z1.a(i2cmaster.o)
                0x00000000000012dc                prescale_lsb
 *fill*         0x00000000000012dd        0x1 00
 .data          0x00000000000012de        0x2 contiki-z1.a(frame802154.o)
 .data          0x00000000000012e0        0x4 /usr/lib/gcc/msp430/4.6.3/../../../../msp430/lib/mcpu-430x/mmpy-16/libc.a(rand.o)
                0x00000000000012e4                . = ALIGN (0x2)
                0x00000000000012e4                _edata = .
                0x000000000000acf0                PROVIDE (__data_load_start, LOADADDR (.data))
                0x00000000000001e4                PROVIDE (__data_size, SIZEOF (.data))

.bss            0x00000000000012e4     0x158c load address 0x000000000000aed4
                0x00000000000012e4                PROVIDE (__bss_start, .)
 *(.bss .bss.*)
 .bss           0x00000000000012e4       0xcc sdn-wise.co
                0x00000000000012e4                data_packet_counter
 .bss           0x00000000000013b0      0x6c4 obj_z1/flowtable.o
 .bss           0x0000000000001a74      0x1e0 obj_z1/packet-buffer.o
 .bss           0x0000000000001c54       0x16 obj_z1/address.o
 .bss           0x0000000000001c6a       0xf8 obj_z1/neighbor-table.o
 .bss           0x0000000000001d62        0x2 obj_z1/packet-creator.o
                0x0000000000001d62                beacon_counter
 .bss           0x0000000000001d64        0x4 obj_z1/contiki-z1-main.o
 .bss           0x0000000000001d68        0x1 contiki-z1.a(leds.o)
 *fill*         0x0000000000001d69        0x1 00
 .bss           0x0000000000001d6a        0x2 contiki-z1.a(watchdog.o)
 .bss           0x0000000000001d6c        0xa contiki-z1.a(cc2420.o)
 .bss           0x0000000000001d76        0x2 contiki-z1.a(node-id.o)
                0x0000000000001d76                node_id
 .bss           0x0000000000001d78        0x6 contiki-z1.a(sensors.o)
 .bss           0x0000000000001d7e        0x4 contiki-z1.a(uart0.o)
 .bss           0x0000000000001d82       0x16 contiki-z1.a(adxl345.o)
 .bss           0x0000000000001d98        0x4 contiki-z1.a(sky-sensors.o)
 .bss           0x0000000000001d9c        0x1 contiki-z1.a(tmp102.o)
 *fill*         0x0000000000001d9d        0x1 00
 .bss           0x0000000000001d9e        0xa contiki-z1.a(clock.o)
 .bss           0x0000000000001da8        0x6 contiki-z1.a(etimer.o)
 .bss           0x0000000000001dae        0x4 contiki-z1.a(ctimer.o)
 .bss           0x0000000000001db2       0x38 contiki-z1.a(process.o)
                0x0000000000001db2                process_current
                0x0000000000001db4                process_list
 .bss           0x0000000000001dea        0x2 contiki-z1.a(rtimer.o)
 .bss           0x0000000000001dec      0x10a contiki-z1.a(serial-line.o)
 .bss           0x0000000000001ef6        0x2 contiki-z1.a(rime.o)
 .bss           0x0000000000001ef8      0x610 contiki-z1.a(queuebuf.o)
 .bss           0x0000000000002508       0x86 contiki-z1.a(packetbuf.o)
 .bss           0x000000000000258e       0xb4 contiki-z1.a(csma.o)
 .bss           0x0000000000002642       0x32 contiki-z1.a(contikimac.o)
 .bss           0x0000000000002674        0x4 contiki-z1.a(i2cmaster.o)
                0x0000000000002674                prescale_msb
 .bss           0x0000000000002678        0x8 contiki-z1.a(button-sensor.o)
 .bss           0x0000000000002680        0x8 contiki-z1.a(compower.o)
 .bss           0x0000000000002688       0x46 contiki-z1.a(broadcast-annou)
 .bss           0x00000000000026ce        0x6 contiki-z1.a(announcement.o)
 .bss           0x00000000000026d4        0x2 contiki-z1.a(channel.o)
 .bss           0x00000000000026d6       0x80 contiki-z1.a(mac-sequence.o)
 .bss           0x0000000000002756        0x2 contiki-z1.a(framer-802154.o)
 *(COMMON)
 COMMON         0x0000000000002758       0x32 obj_z1/flowtable.o
                0x0000000000002758                status_register
 COMMON         0x000000000000278a       0x14 obj_z1/node-conf.o
                0x000000000000278a                conf
 COMMON         0x000000000000279e        0x2 contiki-z1.a(msp430.o)
                0x000000000000279e                msp430_dco_required
 COMMON         0x00000000000027a0       0x10 contiki-z1.a(cc2420.o)
                0x00000000000027a0                cc2420_last_rssi
                0x00000000000027a2                cc2420_sfd_start_time
                0x00000000000027a4                cc2420_time_of_departure
                0x00000000000027a6                cc2420_time_of_arrival
                0x00000000000027a8                cc2420_last_correlation
                0x00000000000027aa                cc2420_authority_level_of_sender
                0x00000000000027ac                cc2420_sfd_counter
                0x00000000000027ae                cc2420_sfd_end_time
 COMMON         0x00000000000027b0        0x8 contiki-z1.a(node-id.o)
                0x00000000000027b0                node_mac
 COMMON         0x00000000000027b8        0x1 contiki-z1.a(sensors.o)
                0x00000000000027b8                sensors_event
 *fill*         0x00000000000027b9        0x1 00
 COMMON         0x00000000000027ba        0x4 contiki-z1.a(z1-sensors.o)
                0x00000000000027ba                sensors_flags
 COMMON         0x00000000000027be        0x4 contiki-z1.a(adxl345.o)
                0x00000000000027be                accm_int2_cb
                0x00000000000027c0                accm_int1_cb
 COMMON         0x00000000000027c2       0x56 contiki-z1.a(energest.o)
                0x00000000000027c2                energest_total_time
                0x00000000000027f2                energest_total_count
                0x00000000000027f4                energest_current_mode
                0x0000000000002800                energest_current_time
 COMMON         0x0000000000002818        0x1 contiki-z1.a(process.o)
                0x0000000000002818                process_maxevents
 COMMON         0x0000000000002819        0x1 contiki-z1.a(serial-line.o)
                0x0000000000002819                serial_line_event_message
 COMMON         0x000000000000281a       0x3c contiki-z1.a(packetbuf.o)
                0x000000000000281a                packetbuf_addrs
                0x0000000000002822                packetbuf_attrs
 COMMON         0x0000000000002856        0x2 contiki-z1.a(linkaddr.o)
                0x0000000000002856                linkaddr_node_addr
 COMMON         0x0000000000002858       0x10 contiki-z1.a(i2cmaster.o)
                0x0000000000002858                transmit_data1
                0x0000000000002859                rx_byte_ctr
                0x000000000000285a                tx_buf_ptr
                0x000000000000285c                tx_byte_ctr
                0x000000000000285e                i
                0x0000000000002860                receive_data
                0x0000000000002862                rx_buf
                0x0000000000002864                transmit_data2
                0x0000000000002866                rx_buf_ptr
 COMMON         0x0000000000002868        0x8 contiki-z1.a(compower.o)
                0x0000000000002868                compower_idle_activity
                0x0000000000002870                . = ALIGN (0x2)
                0x0000000000002870                PROVIDE (__bss_end, .)
                0x000000000000158c                PROVIDE (__bss_size, SIZEOF (.bss))

.noinit         0x0000000000002870        0x2 load address 0x000000000000aed4
                0x0000000000002870                PROVIDE (__noinit_start, .)
 *(.noinit .noinit.*)
 .noinit.crt0   0x0000000000002870        0x2 /usr/lib/gcc/msp430/4.6.3/mcpu-430x/mmpy-16/libcrt0.a(__watchdog_support.o)
                0x0000000000002870                __wdt_clear_value
                0x0000000000002872                . = ALIGN (0x2)
                0x0000000000002872                PROVIDE (__noinit_end, .)
                0x0000000000002872                . = ALIGN (0x2)
                0x0000000000002872                _end = .

.infomem        0x0000000000001000        0x0
 *(.infomem)
                0x0000000000001000                . = ALIGN (0x2)
 *(.infomem.*)

.infomemnobits  0x0000000000001000        0x0
 *(.infomemnobits)
                0x0000000000001000                . = ALIGN (0x2)
 *(.infomemnobits.*)

.infoa
 *(.infoa .infoa.*)

.infob
 *(.infob .infob.*)

.infoc
 *(.infoc .infoc.*)

.infod
 *(.infod .infod.*)

.vectors        0x000000000000ffc0       0x40
                0x000000000000ffc0                PROVIDE (__vectors_start, .)
 *(.vectors*)
 .vectors       0x000000000000ffc0       0x40 /usr/lib/gcc/msp430/4.6.3/mcpu-430x/mmpy-16/crt0ivtbl32.o
                0x000000000000ffc0                __ivtbl_32
                0x0000000000010000                _vectors_end = .

.fartext        0x0000000000010000        0x0
                0x0000000000010000                . = ALIGN (0x2)
 *(.fartext)
                0x0000000000010000                . = ALIGN (0x2)
 *(.fartext.*)
                0x0000000000010000                _efartext = .

.profiler
 *(.profiler)

.stab           0x0000000000000000    0x23c04
 *(.stab)
 .stab          0x0000000000000000     0x2568 sdn-wise.co
 .stab          0x0000000000002568     0x1e90 obj_z1/flowtable.o
                                       0x2238 (size before relaxing)
 .stab          0x00000000000043f8      0xf3c obj_z1/packet-buffer.o
                                       0x1290 (size before relaxing)
 .stab          0x0000000000005334      0xad4 obj_z1/address.o
                                        0xf60 (size before relaxing)
 .stab          0x0000000000005e08      0xbc4 obj_z1/neighbor-table.o
                                       0x10ec (size before relaxing)
 .stab          0x00000000000069cc     0x1428 obj_z1/packet-handler.o
                                       0x1cf8 (size before relaxing)
 .stab          0x0000000000007df4      0x858 obj_z1/node-conf.o
                                       0x1284 (size before relaxing)
 .stab          0x000000000000864c      0x9f0 obj_z1/packet-creator.o
                                       0x1014 (size before relaxing)
 .stab          0x000000000000903c      0xdc8 obj_z1/contiki-z1-main.o
                                       0x1818 (size before relaxing)
 .stab          0x0000000000009e04      0x24c contiki-z1.a(contiki-z1-plat)
                                        0x5a0 (size before relaxing)
 .stab          0x000000000000a050      0x588 contiki-z1.a(msp430.o)
                                        0x8dc (size before relaxing)
 .stab          0x000000000000a5d8      0x5dc contiki-z1.a(leds.o)
                                        0x828 (size before relaxing)
 .stab          0x000000000000abb4      0x3fc contiki-z1.a(watchdog.o)
                                        0x750 (size before relaxing)
 .stab          0x000000000000afb0      0x9fc contiki-z1.a(xmem.o)
                                        0xf3c (size before relaxing)
 .stab          0x000000000000b9ac      0x288 contiki-z1.a(spi.o)
                                        0x5dc (size before relaxing)
 .stab          0x000000000000bc34     0x2904 contiki-z1.a(cc2420.o)
                                       0x3030 (size before relaxing)
 .stab          0x000000000000e538      0x9e4 contiki-z1.a(cc2420-arch.o)
                                       0x1374 (size before relaxing)
 .stab          0x000000000000ef1c      0x300 contiki-z1.a(node-id.o)
                                        0x6d8 (size before relaxing)
 .stab          0x000000000000f21c      0x63c contiki-z1.a(sensors.o)
                                        0xb70 (size before relaxing)
 .stab          0x000000000000f858      0x528 contiki-z1.a(uart0.o)
                                        0xa38 (size before relaxing)
 .stab          0x000000000000fd80      0x234 contiki-z1.a(uart0-putchar.o)
                                        0x588 (size before relaxing)
 .stab          0x000000000000ffb4      0x3a8 contiki-z1.a(z1-sensors.o)
                                        0x78c (size before relaxing)
 .stab          0x000000000001035c      0xd2c contiki-z1.a(adxl345.o)
                                       0x135c (size before relaxing)
 .stab          0x0000000000011088      0x30c contiki-z1.a(battery-sensor.)
                                        0x684 (size before relaxing)
 .stab          0x0000000000011394      0x4f8 contiki-z1.a(sky-sensors.o)
                                        0x864 (size before relaxing)
 .stab          0x000000000001188c      0x81c contiki-z1.a(tmp102.o)
                                        0xd74 (size before relaxing)
 .stab          0x00000000000120a8      0x948 contiki-z1.a(clock.o)
                                        0xc9c (size before relaxing)
 .stab          0x00000000000129f0      0x3a8 contiki-z1.a(leds-arch.o)
                                        0x6fc (size before relaxing)
 .stab          0x0000000000012d98      0x3cc contiki-z1.a(rtimer-arch.o)
                                        0x720 (size before relaxing)
 .stab          0x0000000000013164      0x288 contiki-z1.a(autostart.o)
                                        0x534 (size before relaxing)
 .stab          0x00000000000133ec      0x474 contiki-z1.a(energest.o)
                                        0x6fc (size before relaxing)
 .stab          0x0000000000013860      0xabc contiki-z1.a(etimer.o)
                                        0xd8c (size before relaxing)
 .stab          0x000000000001431c      0x858 contiki-z1.a(ctimer.o)
                                        0xbc4 (size before relaxing)
 .stab          0x0000000000014b74      0xba0 contiki-z1.a(process.o)
                                       0x1038 (size before relaxing)
 .stab          0x0000000000015714      0x3d8 contiki-z1.a(rtimer.o)
                                        0x6c0 (size before relaxing)
 .stab          0x0000000000015aec      0x354 contiki-z1.a(timer.o)
                                        0x594 (size before relaxing)
 .stab          0x0000000000015e40      0x534 contiki-z1.a(serial-line.o)
                                        0xa50 (size before relaxing)
 .stab          0x0000000000016374      0x7e0 contiki-z1.a(list.o)
                                        0x804 (size before relaxing)
 .stab          0x0000000000016b54      0x5c4 contiki-z1.a(memb.o)
                                        0xaf8 (size before relaxing)
 .stab          0x0000000000017118      0x228 contiki-z1.a(random.o)
                                        0x624 (size before relaxing)
 .stab          0x0000000000017340      0x3fc contiki-z1.a(ringbuf.o)
                                        0x63c (size before relaxing)
 .stab          0x000000000001773c      0x6d8 contiki-z1.a(broadcast.o)
                                       0x1500 (size before relaxing)
 .stab          0x0000000000017e14      0xb04 contiki-z1.a(rime.o)
                                       0x1410 (size before relaxing)
 .stab          0x0000000000018918      0x624 contiki-z1.a(unicast.o)
                                       0x129c (size before relaxing)
 .stab          0x0000000000018f3c      0xa5c contiki-z1.a(queuebuf.o)
                                       0x1884 (size before relaxing)
 .stab          0x0000000000019998      0xc60 contiki-z1.a(packetbuf.o)
                                       0x1aa0 (size before relaxing)
 .stab          0x000000000001a5f8      0x2c4 contiki-z1.a(linkaddr.o)
                                        0x6c0 (size before relaxing)
 .stab          0x000000000001a8bc      0xcf0 contiki-z1.a(csma.o)
                                       0x1680 (size before relaxing)
 .stab          0x000000000001b5ac     0x1728 contiki-z1.a(contikimac.o)
                                       0x22ec (size before relaxing)
 .stab          0x000000000001ccd4      0x81c contiki-z1.a(contikimac-fram)
                                        0xe58 (size before relaxing)
 .stab          0x000000000001d4f0      0x3c0 contiki-z1.a(nullsec.o)
                                        0xcf0 (size before relaxing)
 .stab          0x000000000001d8b0      0x894 contiki-z1.a(i2cmaster.o)
                                        0xbe8 (size before relaxing)
 .stab          0x000000000001e144      0x468 contiki-z1.a(button-sensor.o)
                                        0x7d4 (size before relaxing)
 .stab          0x000000000001e5ac      0x51c contiki-z1.a(compower.o)
                                        0xd20 (size before relaxing)
 .stab          0x000000000001eac8      0x948 contiki-z1.a(broadcast-annou)
                                       0x15c0 (size before relaxing)
 .stab          0x000000000001f410      0x66c contiki-z1.a(abc.o)
                                       0x1494 (size before relaxing)
 .stab          0x000000000001fa7c      0x6e4 contiki-z1.a(announcement.o)
                                        0x984 (size before relaxing)
 .stab          0x0000000000020160      0x678 contiki-z1.a(channel.o)
                                       0x129c (size before relaxing)
 .stab          0x00000000000207d8      0x594 contiki-z1.a(chameleon.o)
                                       0x123c (size before relaxing)
 .stab          0x0000000000020d6c      0x648 contiki-z1.a(mac-sequence.o)
                                       0x1488 (size before relaxing)
 .stab          0x00000000000213b4      0x6f0 contiki-z1.a(framer-802154.o)
                                        0xf30 (size before relaxing)
 .stab          0x0000000000021aa4     0x11dc contiki-z1.a(frame802154.o)
                                       0x19c8 (size before relaxing)
 .stab          0x0000000000022c80      0x1f8 contiki-z1.a(mac.o)
                                        0x4ec (size before relaxing)
 .stab          0x0000000000022e78      0xd8c contiki-z1.a(chameleon-bitop)
                                       0x1a04 (size before relaxing)

.stabstr        0x0000000000000000    0x1d39d
 *(.stabstr)
 .stabstr       0x0000000000000000    0x1d39d sdn-wise.co

.stab.excl
 *(.stab.excl)

.stab.exclstr
 *(.stab.exclstr)

.stab.index
 *(.stab.index)

.stab.indexstr
 *(.stab.indexstr)

.comment
 *(.comment)

.debug
 *(.debug)

.line
 *(.line)

.debug_srcinfo
 *(.debug_srcinfo)

.debug_sfnames
 *(.debug_sfnames)

.debug_aranges  0x0000000000000000      0x17c
 *(.debug_aranges)
 .debug_aranges
                0x0000000000000000       0x14 /usr/lib/gcc/msp430/4.6.3/mcpu-430x/mmpy-16/libgcc.a(_mulsi3.o)
 .debug_aranges
                0x0000000000000014       0x14 /usr/lib/gcc/msp430/4.6.3/mcpu-430x/mmpy-16/libgcc.a(_udivmod16.o)
 .debug_aranges
                0x0000000000000028       0x14 /usr/lib/gcc/msp430/4.6.3/mcpu-430x/mmpy-16/libgcc.a(_divmod16.o)
 .debug_aranges
                0x000000000000003c       0x14 /usr/lib/gcc/msp430/4.6.3/mcpu-430x/mmpy-16/libgcc.a(_udivmod32.o)
 .debug_aranges
                0x0000000000000050       0x14 /usr/lib/gcc/msp430/4.6.3/../../../../msp430/lib/mcpu-430x/mmpy-16/libc.a(strncmp.o)
 .debug_aranges
                0x0000000000000064       0x14 /usr/lib/gcc/msp430/4.6.3/../../../../msp430/lib/mcpu-430x/mmpy-16/libc.a(memcmp.o)
 .debug_aranges
                0x0000000000000078       0x14 /usr/lib/gcc/msp430/4.6.3/../../../../msp430/lib/mcpu-430x/mmpy-16/libc.a(memcpy.o)
 .debug_aranges
                0x000000000000008c       0x14 /usr/lib/gcc/msp430/4.6.3/../../../../msp430/lib/mcpu-430x/mmpy-16/libc.a(memset.o)
 .debug_aranges
                0x00000000000000a0       0x14 /usr/lib/gcc/msp430/4.6.3/../../../../msp430/lib/mcpu-430x/mmpy-16/libc.a(printf.o)
 .debug_aranges
                0x00000000000000b4       0x14 /usr/lib/gcc/msp430/4.6.3/../../../../msp430/lib/mcpu-430x/mmpy-16/libc.a(vuprintf.o)
 .debug_aranges
                0x00000000000000c8       0x14 /usr/lib/gcc/msp430/4.6.3/../../../../msp430/lib/mcpu-430x/mmpy-16/libc.a(puts.o)
 .debug_aranges
                0x00000000000000dc       0x14 /usr/lib/gcc/msp430/4.6.3/../../../../msp430/lib/mcpu-430x/mmpy-16/libc.a(rand.o)
 .debug_aranges
                0x00000000000000f0       0x14 /usr/lib/gcc/msp430/4.6.3/mcpu-430x/mmpy-16/libgcc.a(_udivmod64.o)
 .debug_aranges
                0x0000000000000104       0x14 /usr/lib/gcc/msp430/4.6.3/mcpu-430x/mmpy-16/libcrt0.a(__watchdog_support.o)
 .debug_aranges
                0x0000000000000118       0x14 /usr/lib/gcc/msp430/4.6.3/mcpu-430x/mmpy-16/libcrt0.a(__init_stack.o)
 .debug_aranges
                0x000000000000012c       0x14 /usr/lib/gcc/msp430/4.6.3/mcpu-430x/mmpy-16/libcrt0.a(_copy_data.o)
 .debug_aranges
                0x0000000000000140       0x14 /usr/lib/gcc/msp430/4.6.3/mcpu-430x/mmpy-16/libcrt0.a(_clear_bss.o)
 .debug_aranges
                0x0000000000000154       0x14 /usr/lib/gcc/msp430/4.6.3/mcpu-430x/mmpy-16/libcrt0.a(_endless_loop__.o)
 .debug_aranges
                0x0000000000000168       0x14 /usr/lib/gcc/msp430/4.6.3/mcpu-430x/mmpy-16/libcrt0.a(_unexpected_.o)

.debug_pubnames
 *(.debug_pubnames)

.debug_info     0x0000000000000000     0x1593
 *(.debug_info)
 .debug_info    0x0000000000000000       0xf6 /usr/lib/gcc/msp430/4.6.3/mcpu-430x/mmpy-16/libgcc.a(_mulsi3.o)
 .debug_info    0x00000000000000f6       0xf6 /usr/lib/gcc/msp430/4.6.3/mcpu-430x/mmpy-16/libgcc.a(_udivmod16.o)
 .debug_info    0x00000000000001ec       0xf6 /usr/lib/gcc/msp430/4.6.3/mcpu-430x/mmpy-16/libgcc.a(_divmod16.o)
 .debug_info    0x00000000000002e2       0xf6 /usr/lib/gcc/msp430/4.6.3/mcpu-430x/mmpy-16/libgcc.a(_udivmod32.o)
 .debug_info    0x00000000000003d8       0xbb /usr/lib/gcc/msp430/4.6.3/../../../../msp430/lib/mcpu-430x/mmpy-16/libc.a(strncmp.o)
 .debug_info    0x0000000000000493       0xe8 /usr/lib/gcc/msp430/4.6.3/../../../../msp430/lib/mcpu-430x/mmpy-16/libc.a(memcmp.o)
 .debug_info    0x000000000000057b      0x111 /usr/lib/gcc/msp430/4.6.3/../../../../msp430/lib/mcpu-430x/mmpy-16/libc.a(memcpy.o)
 .debug_info    0x000000000000068c       0xfe /usr/lib/gcc/msp430/4.6.3/../../../../msp430/lib/mcpu-430x/mmpy-16/libc.a(memset.o)
 .debug_info    0x000000000000078a      0x105 /usr/lib/gcc/msp430/4.6.3/../../../../msp430/lib/mcpu-430x/mmpy-16/libc.a(printf.o)
 .debug_info    0x000000000000088f      0x565 /usr/lib/gcc/msp430/4.6.3/../../../../msp430/lib/mcpu-430x/mmpy-16/libc.a(vuprintf.o)
 .debug_info    0x0000000000000df4       0x96 /usr/lib/gcc/msp430/4.6.3/../../../../msp430/lib/mcpu-430x/mmpy-16/libc.a(puts.o)
 .debug_info    0x0000000000000e8a      0x13f /usr/lib/gcc/msp430/4.6.3/../../../../msp430/lib/mcpu-430x/mmpy-16/libc.a(rand.o)
 .debug_info    0x0000000000000fc9       0xf6 /usr/lib/gcc/msp430/4.6.3/mcpu-430x/mmpy-16/libgcc.a(_udivmod64.o)
 .debug_info    0x00000000000010bf       0xce /usr/lib/gcc/msp430/4.6.3/mcpu-430x/mmpy-16/libcrt0.a(__watchdog_support.o)
 .debug_info    0x000000000000118d       0xce /usr/lib/gcc/msp430/4.6.3/mcpu-430x/mmpy-16/libcrt0.a(__init_stack.o)
 .debug_info    0x000000000000125b       0xce /usr/lib/gcc/msp430/4.6.3/mcpu-430x/mmpy-16/libcrt0.a(_copy_data.o)
 .debug_info    0x0000000000001329       0xce /usr/lib/gcc/msp430/4.6.3/mcpu-430x/mmpy-16/libcrt0.a(_clear_bss.o)
 .debug_info    0x00000000000013f7       0xce /usr/lib/gcc/msp430/4.6.3/mcpu-430x/mmpy-16/libcrt0.a(_endless_loop__.o)
 .debug_info    0x00000000000014c5       0xce /usr/lib/gcc/msp430/4.6.3/mcpu-430x/mmpy-16/libcrt0.a(_unexpected_.o)
 *(.gnu.linkonce.wi.*)

.debug_abbrev   0x0000000000000000      0x744
 *(.debug_abbrev)
 .debug_abbrev  0x0000000000000000       0x14 /usr/lib/gcc/msp430/4.6.3/mcpu-430x/mmpy-16/libgcc.a(_mulsi3.o)
 .debug_abbrev  0x0000000000000014       0x14 /usr/lib/gcc/msp430/4.6.3/mcpu-430x/mmpy-16/libgcc.a(_udivmod16.o)
 .debug_abbrev  0x0000000000000028       0x14 /usr/lib/gcc/msp430/4.6.3/mcpu-430x/mmpy-16/libgcc.a(_divmod16.o)
 .debug_abbrev  0x000000000000003c       0x14 /usr/lib/gcc/msp430/4.6.3/mcpu-430x/mmpy-16/libgcc.a(_udivmod32.o)
 .debug_abbrev  0x0000000000000050       0x7c /usr/lib/gcc/msp430/4.6.3/../../../../msp430/lib/mcpu-430x/mmpy-16/libc.a(strncmp.o)
 .debug_abbrev  0x00000000000000cc       0x9b /usr/lib/gcc/msp430/4.6.3/../../../../msp430/lib/mcpu-430x/mmpy-16/libc.a(memcmp.o)
 .debug_abbrev  0x0000000000000167       0xa6 /usr/lib/gcc/msp430/4.6.3/../../../../msp430/lib/mcpu-430x/mmpy-16/libc.a(memcpy.o)
 .debug_abbrev  0x000000000000020d       0x9c /usr/lib/gcc/msp430/4.6.3/../../../../msp430/lib/mcpu-430x/mmpy-16/libc.a(memset.o)
 .debug_abbrev  0x00000000000002a9       0xd0 /usr/lib/gcc/msp430/4.6.3/../../../../msp430/lib/mcpu-430x/mmpy-16/libc.a(printf.o)
 .debug_abbrev  0x0000000000000379      0x1ef /usr/lib/gcc/msp430/4.6.3/../../../../msp430/lib/mcpu-430x/mmpy-16/libc.a(vuprintf.o)
 .debug_abbrev  0x0000000000000568       0x60 /usr/lib/gcc/msp430/4.6.3/../../../../msp430/lib/mcpu-430x/mmpy-16/libc.a(puts.o)
 .debug_abbrev  0x00000000000005c8       0xf0 /usr/lib/gcc/msp430/4.6.3/../../../../msp430/lib/mcpu-430x/mmpy-16/libc.a(rand.o)
 .debug_abbrev  0x00000000000006b8       0x14 /usr/lib/gcc/msp430/4.6.3/mcpu-430x/mmpy-16/libgcc.a(_udivmod64.o)
 .debug_abbrev  0x00000000000006cc       0x14 /usr/lib/gcc/msp430/4.6.3/mcpu-430x/mmpy-16/libcrt0.a(__watchdog_support.o)
 .debug_abbrev  0x00000000000006e0       0x14 /usr/lib/gcc/msp430/4.6.3/mcpu-430x/mmpy-16/libcrt0.a(__init_stack.o)
 .debug_abbrev  0x00000000000006f4       0x14 /usr/lib/gcc/msp430/4.6.3/mcpu-430x/mmpy-16/libcrt0.a(_copy_data.o)
 .debug_abbrev  0x0000000000000708       0x14 /usr/lib/gcc/msp430/4.6.3/mcpu-430x/mmpy-16/libcrt0.a(_clear_bss.o)
 .debug_abbrev  0x000000000000071c       0x14 /usr/lib/gcc/msp430/4.6.3/mcpu-430x/mmpy-16/libcrt0.a(_endless_loop__.o)
 .debug_abbrev  0x0000000000000730       0x14 /usr/lib/gcc/msp430/4.6.3/mcpu-430x/mmpy-16/libcrt0.a(_unexpected_.o)

.debug_line     0x0000000000000000      0xd6a
 *(.debug_line)
 .debug_line    0x0000000000000000       0xad /usr/lib/gcc/msp430/4.6.3/mcpu-430x/mmpy-16/libgcc.a(_mulsi3.o)
 .debug_line    0x00000000000000ad       0xa7 /usr/lib/gcc/msp430/4.6.3/mcpu-430x/mmpy-16/libgcc.a(_udivmod16.o)
 .debug_line    0x0000000000000154       0xb2 /usr/lib/gcc/msp430/4.6.3/mcpu-430x/mmpy-16/libgcc.a(_divmod16.o)
 .debug_line    0x0000000000000206       0xb2 /usr/lib/gcc/msp430/4.6.3/mcpu-430x/mmpy-16/libgcc.a(_udivmod32.o)
 .debug_line    0x00000000000002b8       0x75 /usr/lib/gcc/msp430/4.6.3/../../../../msp430/lib/mcpu-430x/mmpy-16/libc.a(strncmp.o)
 .debug_line    0x000000000000032d       0x73 /usr/lib/gcc/msp430/4.6.3/../../../../msp430/lib/mcpu-430x/mmpy-16/libc.a(memcmp.o)
 .debug_line    0x00000000000003a0       0xe9 /usr/lib/gcc/msp430/4.6.3/../../../../msp430/lib/mcpu-430x/mmpy-16/libc.a(memcpy.o)
 .debug_line    0x0000000000000489       0xc8 /usr/lib/gcc/msp430/4.6.3/../../../../msp430/lib/mcpu-430x/mmpy-16/libc.a(memset.o)
 .debug_line    0x0000000000000551       0x72 /usr/lib/gcc/msp430/4.6.3/../../../../msp430/lib/mcpu-430x/mmpy-16/libc.a(printf.o)
 .debug_line    0x00000000000005c3      0x2ce /usr/lib/gcc/msp430/4.6.3/../../../../msp430/lib/mcpu-430x/mmpy-16/libc.a(vuprintf.o)
 .debug_line    0x0000000000000891       0x4d /usr/lib/gcc/msp430/4.6.3/../../../../msp430/lib/mcpu-430x/mmpy-16/libc.a(puts.o)
 .debug_line    0x00000000000008de       0x4f /usr/lib/gcc/msp430/4.6.3/../../../../msp430/lib/mcpu-430x/mmpy-16/libc.a(rand.o)
 .debug_line    0x000000000000092d       0xe0 /usr/lib/gcc/msp430/4.6.3/mcpu-430x/mmpy-16/libgcc.a(_udivmod64.o)
 .debug_line    0x0000000000000a0d       0x8f /usr/lib/gcc/msp430/4.6.3/mcpu-430x/mmpy-16/libcrt0.a(__watchdog_support.o)
 .debug_line    0x0000000000000a9c       0x8d /usr/lib/gcc/msp430/4.6.3/mcpu-430x/mmpy-16/libcrt0.a(__init_stack.o)
 .debug_line    0x0000000000000b29       0x93 /usr/lib/gcc/msp430/4.6.3/mcpu-430x/mmpy-16/libcrt0.a(_copy_data.o)
 .debug_line    0x0000000000000bbc       0x93 /usr/lib/gcc/msp430/4.6.3/mcpu-430x/mmpy-16/libcrt0.a(_clear_bss.o)
 .debug_line    0x0000000000000c4f       0x8e /usr/lib/gcc/msp430/4.6.3/mcpu-430x/mmpy-16/libcrt0.a(_endless_loop__.o)
 .debug_line    0x0000000000000cdd       0x8d /usr/lib/gcc/msp430/4.6.3/mcpu-430x/mmpy-16/libcrt0.a(_unexpected_.o)

.debug_frame    0x0000000000000000      0x1ac
 *(.debug_frame)
 .debug_frame   0x0000000000000000       0x24 /usr/lib/gcc/msp430/4.6.3/../../../../msp430/lib/mcpu-430x/mmpy-16/libc.a(strncmp.o)
 .debug_frame   0x0000000000000024       0x24 /usr/lib/gcc/msp430/4.6.3/../../../../msp430/lib/mcpu-430x/mmpy-16/libc.a(memcmp.o)
 .debug_frame   0x0000000000000048       0x2c /usr/lib/gcc/msp430/4.6.3/../../../../msp430/lib/mcpu-430x/mmpy-16/libc.a(memcpy.o)
 .debug_frame   0x0000000000000074       0x2a /usr/lib/gcc/msp430/4.6.3/../../../../msp430/lib/mcpu-430x/mmpy-16/libc.a(memset.o)
 .debug_frame   0x000000000000009e       0x2a /usr/lib/gcc/msp430/4.6.3/../../../../msp430/lib/mcpu-430x/mmpy-16/libc.a(printf.o)
 .debug_frame   0x00000000000000c8       0x84 /usr/lib/gcc/msp430/4.6.3/../../../../msp430/lib/mcpu-430x/mmpy-16/libc.a(vuprintf.o)
 .debug_frame   0x000000000000014c       0x24 /usr/lib/gcc/msp430/4.6.3/../../../../msp430/lib/mcpu-430x/mmpy-16/libc.a(puts.o)
 .debug_frame   0x0000000000000170       0x3c /usr/lib/gcc/msp430/4.6.3/../../../../msp430/lib/mcpu-430x/mmpy-16/libc.a(rand.o)

.debug_str      0x0000000000000000      0x3e8
 *(.debug_str)
 .debug_str     0x0000000000000000       0xd0 /usr/lib/gcc/msp430/4.6.3/../../../../msp430/lib/mcpu-430x/mmpy-16/libc.a(strncmp.o)
                                        0x109 (size before relaxing)
 .debug_str     0x00000000000000d0       0x19 /usr/lib/gcc/msp430/4.6.3/../../../../msp430/lib/mcpu-430x/mmpy-16/libc.a(memcmp.o)
                                        0x107 (size before relaxing)
 .debug_str     0x00000000000000e9       0x34 /usr/lib/gcc/msp430/4.6.3/../../../../msp430/lib/mcpu-430x/mmpy-16/libc.a(memcpy.o)
                                        0x122 (size before relaxing)
 .debug_str     0x000000000000011d       0x26 /usr/lib/gcc/msp430/4.6.3/../../../../msp430/lib/mcpu-430x/mmpy-16/libc.a(memset.o)
                                        0x120 (size before relaxing)
 .debug_str     0x0000000000000143       0x40 /usr/lib/gcc/msp430/4.6.3/../../../../msp430/lib/mcpu-430x/mmpy-16/libc.a(printf.o)
                                        0x136 (size before relaxing)
 .debug_str     0x0000000000000183      0x221 /usr/lib/gcc/msp430/4.6.3/../../../../msp430/lib/mcpu-430x/mmpy-16/libc.a(vuprintf.o)
                                        0x381 (size before relaxing)
 .debug_str     0x00000000000003a4       0x15 /usr/lib/gcc/msp430/4.6.3/../../../../msp430/lib/mcpu-430x/mmpy-16/libc.a(puts.o)
                                         0xfc (size before relaxing)
 .debug_str     0x00000000000003b9       0x2f /usr/lib/gcc/msp430/4.6.3/../../../../msp430/lib/mcpu-430x/mmpy-16/libc.a(rand.o)
                                        0x11b (size before relaxing)

.debug_loc      0x0000000000000000      0xa34
 *(.debug_loc)
 .debug_loc     0x0000000000000000       0x38 /usr/lib/gcc/msp430/4.6.3/../../../../msp430/lib/mcpu-430x/mmpy-16/libc.a(strncmp.o)
 .debug_loc     0x0000000000000038       0x5e /usr/lib/gcc/msp430/4.6.3/../../../../msp430/lib/mcpu-430x/mmpy-16/libc.a(memcmp.o)
 .debug_loc     0x0000000000000096      0x1b7 /usr/lib/gcc/msp430/4.6.3/../../../../msp430/lib/mcpu-430x/mmpy-16/libc.a(memcpy.o)
 .debug_loc     0x000000000000024d       0xc3 /usr/lib/gcc/msp430/4.6.3/../../../../msp430/lib/mcpu-430x/mmpy-16/libc.a(memset.o)
 .debug_loc     0x0000000000000310       0x38 /usr/lib/gcc/msp430/4.6.3/../../../../msp430/lib/mcpu-430x/mmpy-16/libc.a(printf.o)
 .debug_loc     0x0000000000000348      0x697 /usr/lib/gcc/msp430/4.6.3/../../../../msp430/lib/mcpu-430x/mmpy-16/libc.a(vuprintf.o)
 .debug_loc     0x00000000000009df       0x26 /usr/lib/gcc/msp430/4.6.3/../../../../msp430/lib/mcpu-430x/mmpy-16/libc.a(puts.o)
 .debug_loc     0x0000000000000a05       0x2f /usr/lib/gcc/msp430/4.6.3/../../../../msp430/lib/mcpu-430x/mmpy-16/libc.a(rand.o)

.debug_macinfo
 *(.debug_macinfo)

.debug_pubtypes
 *(.debug_pubtypes)

.debug_ranges   0x0000000000000000       0x18
 *(.debug_ranges)
 .debug_ranges  0x0000000000000000       0x18 /usr/lib/gcc/msp430/4.6.3/../../../../msp430/lib/mcpu-430x/mmpy-16/libc.a(vuprintf.o)
                0x0000000000003100                PROVIDE (__stack, (ORIGIN (ram) + 0x2000))
                0x000000000000acf0                PROVIDE (__data_start_rom, _etext)
                0x000000000000aed4                PROVIDE (__data_end_rom, (_etext + SIZEOF (.data)))
OUTPUT(sdn-wise.z1 elf32-msp430)
